EXPORTS
    FL_NORMAL_SIZE @1 DATA
    IID_IAdviseSink @2 DATA
    IID_IAdviseSink2 @3 DATA
    IID_IBindCtx @4 DATA
    IID_IClassActivator @5 DATA
    IID_IClassFactory @6 DATA
    IID_IClientSecurity @7 DATA
    IID_IDataAdviseHolder @8 DATA
    IID_IDataObject @9 DATA
    IID_IDropSource @10 DATA
    IID_IDropTarget @11 DATA
    IID_IExternalConnection @12 DATA
    IID_IFillLockBytes @13 DATA
    IID_ILockBytes @14 DATA
    IID_IMalloc @15 DATA
    IID_IMallocSpy @16 DATA
    IID_IMarshal @17 DATA
    IID_IMessageFilter @18 DATA
    IID_IMoniker @19 DATA
    IID_IOleAdviseHolder @20 DATA
    IID_IOleCache @21 DATA
    IID_IOleCache2 @22 DATA
    IID_IOleCacheControl @23 DATA
    IID_IOleClientSite @24 DATA
    IID_IOleContainer @25 DATA
    IID_IOleInPlaceActiveObject @26 DATA
    IID_IOleInPlaceFrame @27 DATA
    IID_IOleInPlaceObject @28 DATA
    IID_IOleInPlaceSite @29 DATA
    IID_IOleInPlaceUIWindow @30 DATA
    IID_IOleItemContainer @31 DATA
    IID_IOleObject @32 DATA
    IID_IOleWindow @33 DATA
    IID_IPSFactoryBuffer @34 DATA
    IID_IParseDisplayName @35 DATA
    IID_IPersist @36 DATA
    IID_IPersistFile @37 DATA
    IID_IPersistStorage @38 DATA
    IID_IPersistStream @39 DATA
    IID_IProgressNotify @40 DATA
    IID_IPropertySetStorage @41 DATA
    IID_IPropertyStorage @42 DATA
    IID_IROTData @43 DATA
    IID_IRootStorage @44 DATA
    IID_IRpcChannelBuffer @45 DATA
    IID_IRpcProxyBuffer @46 DATA
    IID_IRpcStubBuffer @47 DATA
    IID_IRunnableObject @48 DATA
    IID_IRunningObjectTable @49 DATA
    IID_ISequentialStream @50 DATA
    IID_IServerSecurity @51 DATA
    IID_IStdMarshalInfo @52 DATA
    IID_IStorage @53 DATA
    IID_IStream @54 DATA
    IID_IUnknown @55 DATA
    IID_IViewObject @56 DATA
    IID_IViewObject2 @57 DATA
    XUtf8IsNonSpacing @58
    XUtf8Tolower @59
    XUtf8Toupper @60
    _Z10fl_ask_luaPKc @61
    _Z10fl_descentv @62
    _Z10fl_lighterj @63
    _Z10fl_measurePKcRiS1_i @64
    _Z10fl_messagePKcz @65
    _Z10fl_polygoniiiiii @66
    _Z10fl_polygoniiiiiiii @67
    _Z10fl_save_dcP6HWND__P5HDC__ @68
    _Z10resizeformv @69
    _Z11fl_clip_boxiiiiRiS_S_S_ @70
    _Z11fl_contrastjj @71
    _Z11fl_down_boxiiiij @72
    _Z11fl_draw_box10Fl_Boxtypeiiiij @73
    _Z11fl_end_linev @74
    _Z11fl_end_loopv @75
    _Z11fl_inactivej @76
    _Z11fl_no_labelPK8Fl_Labeliiiij @77
    _Z11fl_open_uriPKcPci @78
    _Z11fl_passwordPKcS0_z @79
    _Z11fl_pop_clipv @80
    _Z11fl_rtl_drawPKciii @81
    _Z11fl_save_penv @82
    _Z11fl_set_spotiiiiiiP9Fl_Window @83
    _Z11fl_up_frameiiiij @84
    _Z11init_sourceP22jpeg_decompress_struct @85
    _Z11term_sourceP22jpeg_decompress_struct @86
    _Z11utf8towcharPKc @87
    _Z11wchartoutf8PKw @88
    _Z12fl_alert_luaPKc @89
    _Z12fl_fix_focusv @90
    _Z12fl_gray_rampi @91
    _Z12fl_gray_rampv @92
    _Z12fl_push_clipiiii @93
    _Z12fl_rectboundiiiij @94
    _Z12fl_rgb_colorh @95
    _Z12fl_rgb_colorhhh @96
    _Z12fl_translatedd @97
    _Z13fl_add_symbolPKcPFvjEi @98
    _Z13fl_begin_linev @99
    _Z13fl_begin_loopv @100
    _Z13fl_color_cubeiii @101
    _Z13fl_down_frameiiiij @102
    _Z13fl_draw_imagePFvPviiiPhES_iiiii @103
    _Z13fl_draw_imagePKhiiiiii @104
    _Z13fl_end_pointsv @105
    _Z13fl_free_fontsv @106
    _Z13fl_line_styleiiPc @107
    _Z13fl_pop_matrixv @108
    _Z13fl_read_imagePhiiiii @109
    _Z13fl_release_dcP6HWND__P5HDC__ @110
    _Z13fl_reset_spotv @111
    _Z13fl_set_statusiiii @112
    _Z14XParseGeometryPKcPiS1_PjS2_ @113
    _Z14fl_clip_regionP6HRGN__ @114
    _Z14fl_clip_regionv @115
    _Z14fl_dir_chooserPKcS0_i @116
    _Z14fl_draw_pixmapPKPKciij @117
    _Z14fl_draw_pixmapPKPciij @118
    _Z14fl_draw_symbolPKciiiij @119
    _Z14fl_end_polygonv @120
    _Z14fl_expand_textPKcPcidRiRdii @121
    _Z14fl_message_luaPKc @122
    _Z14fl_mult_matrixdddddd @123
    _Z14fl_not_clippediiii @124
    _Z14fl_parse_colorPKcRhS1_S1_ @125
    _Z14fl_push_matrixv @126
    _Z14fl_restore_penv @127
    _Z14fl_thin_up_boxiiiij @128
    _Z14fl_throw_focusP9Fl_Widget @129
    _Z14fl_transform_xdd @130
    _Z14fl_transform_ydd @131
    _Z15fl_begin_pointsv @132
    _Z15fl_border_frameiiiij @133
    _Z15fl_brush_actioni @134
    _Z15fl_cleanup_pensv @135
    _Z15fl_embossed_boxiiiij @136
    _Z15fl_engraved_boxiiiij @137
    _Z15fl_file_chooserPKcS0_S0_i @138
    _Z15fl_filename_extPKc @139
    _Z15fl_get_codepagev @140
    _Z15fl_message_fontii @141
    _Z15fl_message_iconv @142
    _Z15fl_normal_labelPK8Fl_Labeliiiij @143
    _Z15fl_old_shortcutPKc @144
    _Z15fl_overlay_rectiiii @145
    _Z15fl_push_no_clipv @146
    _Z15fl_restore_clipv @147
    _Z15fl_return_arrowiiii @148
    _Z15fl_round_up_boxiiiij @149
    _Z15fl_text_drag_meiP15Fl_Text_Display @150
    _Z15fl_text_extentsPKcRiS1_S1_S1_ @151
    _Z15fl_text_extentsPKciRiS1_S1_S1_ @152
    _Z15fl_transform_dxdd @153
    _Z15fl_transform_dydd @154
    _Z15skip_input_dataP22jpeg_decompress_structl @155
    _Z16XRectangleRegioniiii @156
    _Z16fl_begin_polygonv @157
    _Z16fl_color_averagejjf @158
    _Z16fl_color_chooserPKcRdS1_S1_ @159
    _Z16fl_color_chooserPKcRhS1_S1_ @160
    _Z16fl_filename_listPKcPPP6direntPFiS3_S3_E @161
    _Z16fl_filename_namePKc @162
    _Z16fl_overlay_clearv @163
    _Z16fl_show_colormapj @164
    _Z16fl_thin_down_boxiiiij @165
    _Z16fl_thin_up_frameiiiij @166
    _Z16gtk_round_up_boxiiiij @167
    _Z17fill_input_bufferP22jpeg_decompress_struct @168
    _Z17fl_copy_offscreeniiiiP9HBITMAP__ii @169
    _Z17fl_create_bitmaskiiPKh @170
    _Z17fl_delete_bitmaskP9HBITMAP__ @171
    _Z17fl_embossed_frameiiiij @172
    _Z17fl_engraved_frameiiiij @173
    _Z17fl_filename_isdirPKc @174
    _Z17fl_filename_matchPKcS0_ @175
    _Z17fl_measure_pixmapPKPKcRiS3_ @176
    _Z17fl_measure_pixmapPKPcRiS2_ @177
    _Z17fl_normal_measurePK8Fl_LabelRiS2_ @178
    _Z17fl_round_down_boxiiiij @179
    _Z17fl_select_palettev @180
    _Z17fl_shortcut_labelj @181
    _Z17fl_shortcut_labeljPPKc @182
    _Z18fl_cleanup_dc_listv @183
    _Z18fl_draw_image_monoPKhiiiiii @184
    _Z18fl_filename_expandPciPKc @185
    _Z18fl_latin1_to_localPKci @186
    _Z18fl_local_to_latin1PKci @187
    _Z18fl_register_imagesv @188
    _Z18fl_thin_down_frameiiiij @189
    _Z18gtk_round_down_boxiiiij @190
    _Z18new_fltk_Fl_PixmapP9lua_Statei @191
    _Z19fl_create_alphamaskiiiiPKh @192
    _Z19fl_internal_boxtype10Fl_BoxtypePFviiiijE @193
    _Z19fltk_fl_remove_idleP9lua_Statei @194
    _Z20fl_filename_absolutePciPKc @195
    _Z20fl_filename_relativePciPKc @196
    _Z20fl_get_lcid_codepagem @197
    _Z20set_fltk_fl_add_idleP9lua_Stateii @198
    _Z21fl_define_FL_OVAL_BOXv @199
    _Z21fl_local_to_mac_romanPKci @200
    _Z21fl_mac_roman_to_localPKci @201
    _Z21fl_transformed_vertexdd @202
    _Z22draw_flve_check_buttoniiiiP17Flve_Check_ButtonPc @203
    _Z22fl_define_FL_RFLAT_BOXv @204
    _Z22fl_end_complex_polygonv @205
    _Z22fltk_fl_remove_handlerP9lua_Statei @206
    _Z22fltk_fl_remove_timeoutP9lua_Statei @207
    _Z23fl_define_FL_GTK_UP_BOXv @208
    _Z23fl_define_FL_SHADOW_BOXv @209
    _Z23set_fltk_fl_add_handlerP9lua_Statei @210
    _Z23set_fltk_fl_add_timeoutP9lua_Statedii @211
    _Z23set_fltk_help_view_linkP12Fl_Help_ViewP9lua_Statei @212
    _Z24_fl_filename_isdir_quickPKc @213
    _Z24fl_begin_complex_polygonv @214
    _Z24fl_can_do_alpha_blendingv @215
    _Z24fl_define_FL_DIAMOND_BOXv @216
    _Z24fl_define_FL_ROUNDED_BOXv @217
    _Z24fl_define_FL_RSHADOW_BOXv @218
    _Z24fl_file_chooser_callbackPFvPKcE @219
    _Z24fl_file_chooser_ok_labelPKc @220
    _Z24lua_get_cptr_luafunctionP9lua_StatePc @221
    _Z24lua_set_cptr_luafunctionP9lua_StatePci @222
    _Z24set_fltk_widget_callbackP9Fl_WidgetP9lua_Statei @223
    _Z25fl_define_FL_ROUND_UP_BOXv @224
    _Z25fl_define_FL_SHADOW_LABELv @225
    _Z26set_fltk_fl_repeat_timeoutP9lua_Statedi @226
    _Z27fl_define_FL_EMBOSSED_LABELv @227
    _Z27fl_define_FL_ENGRAVED_LABELv @228
    _Z27fl_define_FL_PLASTIC_UP_BOXv @229
    _Z27lua_delete_cptr_luafunctionP9lua_StatePc @230
    _Z27set_fltk_menu_item_callbackP12Fl_Menu_ItemP9lua_Statei @231
    _Z28fl_copy_offscreen_with_alphaiiiiP9HBITMAP__ii @232
    _Z6Fl_Endv @233
    _Z6fl_arcddddd @234
    _Z6fl_arciiiidd @235
    _Z6fl_askPKcz @236
    _Z6fl_box10Fl_Boxtype @237
    _Z6fl_gapv @238
    _Z6fl_pieiiiidd @239
    _Z7fl_beepi @240
    _Z7fl_down10Fl_Boxtype @241
    _Z7fl_drawPKciff @242
    _Z7fl_drawPKcii @243
    _Z7fl_drawPKciii @244
    _Z7fl_drawPKciiiijP8Fl_Imagei @245
    _Z7fl_drawPKciiiijPFvS0_iiiEP8Fl_Imagei @246
    _Z7fl_drawiPKcii @247
    _Z7fl_drawiPKciii @248
    _Z7fl_findP6HWND__ @249
    _Z7fl_fontii @250
    _Z7fl_fontiii @251
    _Z7fl_fontv @252
    _Z7fl_lineiiii @253
    _Z7fl_lineiiiiii @254
    _Z7fl_loopiiiiii @255
    _Z7fl_loopiiiiiiii @256
    _Z7fl_rectiiii @257
    _Z7fl_rectiiiij @258
    _Z7fl_sizev @259
    _Z7fl_waitd @260
    _Z8fl_GetDCP6HWND__ @261
    _Z8fl_alertPKcz @262
    _Z8fl_arc_iiiiidd @263
    _Z8fl_brushv @264
    _Z8fl_colorhhh @265
    _Z8fl_colori @266
    _Z8fl_colorj @267
    _Z8fl_colorv @268
    _Z8fl_curvedddddddd @269
    _Z8fl_frame10Fl_Boxtype @270
    _Z8fl_framePKciiii @271
    _Z8fl_inputPKcS0_z @272
    _Z8fl_pointii @273
    _Z8fl_readyv @274
    _Z8fl_rectfiiii @275
    _Z8fl_rectfiiiihhh @276
    _Z8fl_rectfiiiij @277
    _Z8fl_scaled @278
    _Z8fl_scaledd @279
    _Z8fl_widthPKc @280
    _Z8fl_widthPKci @281
    _Z8fl_widthj @282
    _Z9fl_choicePKcS0_S0_S0_z @283
    _Z9fl_circleddd @284
    _Z9fl_cursor9Fl_Cursorjj @285
    _Z9fl_darkerj @286
    _Z9fl_frame2PKciiii @287
    _Z9fl_heightii @288
    _Z9fl_heightv @289
    _Z9fl_makeDCP9HBITMAP__ @290
    _Z9fl_no_boxiiiij @291
    _Z9fl_rotated @292
    _Z9fl_scrolliiiiiiPFvPviiiiES_ @293
    _Z9fl_up_boxiiiij @294
    _Z9fl_vertexdd @295
    _Z9fl_xylineiii @296
    _Z9fl_xylineiiii @297
    _Z9fl_xylineiiiii @298
    _Z9fl_yxlineiii @299
    _Z9fl_yxlineiiii @300
    _Z9fl_yxlineiiiii @301
    _ZN10Fl_Browser10bottomlineEi @302
    _ZN10Fl_Browser10middlelineEi @303
    _ZN10Fl_Browser11column_charEc @304
    _ZN10Fl_Browser11format_charEc @305
    _ZN10Fl_Browser11item_selectEPvi @306
    _ZN10Fl_Browser11remove_iconEi @307
    _ZN10Fl_Browser12linepositionEiNS_16Fl_Line_PositionE @308
    _ZN10Fl_Browser12make_visibleEi @309
    _ZN10Fl_Browser13column_widthsEPKi @310
    _ZN10Fl_Browser13inherits_fromEPKc @311
    _ZN10Fl_Browser15cheap_rtti_infoEv @312
    _ZN10Fl_Browser3addEPKcPv @313
    _ZN10Fl_Browser4dataEiPv @314
    _ZN10Fl_Browser4hideEi @315
    _ZN10Fl_Browser4hideEv @316
    _ZN10Fl_Browser4iconEiP8Fl_Image @317
    _ZN10Fl_Browser4loadEPKc @318
    _ZN10Fl_Browser4moveEii @319
    _ZN10Fl_Browser4showEi @320
    _ZN10Fl_Browser4showEv @321
    _ZN10Fl_Browser4sizeEii @322
    _ZN10Fl_Browser4swapEP8FL_BLINES1_ @323
    _ZN10Fl_Browser4swapEii @324
    _ZN10Fl_Browser4textEiPKc @325
    _ZN10Fl_Browser5clearEv @326
    _ZN10Fl_Browser5valueEi @327
    _ZN10Fl_Browser6insertEiP8FL_BLINE @328
    _ZN10Fl_Browser6insertEiPKcPv @329
    _ZN10Fl_Browser6removeEi @330
    _ZN10Fl_Browser6selectEii @331
    _ZN10Fl_Browser7_removeEi @332
    _ZN10Fl_Browser7classIdEv @333
    _ZN10Fl_Browser7displayEii @334
    _ZN10Fl_Browser7replaceEiPKc @335
    _ZN10Fl_Browser7toplineEi @336
    _ZN10Fl_Browser9item_swapEPvS0_ @337
    _ZN10Fl_BrowserC1EiiiiPKc @338
    _ZN10Fl_BrowserC2EiiiiPKc @339
    _ZN10Fl_BrowserD0Ev @340
    _ZN10Fl_BrowserD1Ev @341
    _ZN10Fl_BrowserD2Ev @342
    _ZN10Fl_Counter12increment_cbEv @343
    _ZN10Fl_Counter13calc_mouseobjEv @344
    _ZN10Fl_Counter13inherits_fromEPKc @345
    _ZN10Fl_Counter15cheap_rtti_infoEv @346
    _ZN10Fl_Counter15repeat_callbackEPv @347
    _ZN10Fl_Counter4drawEv @348
    _ZN10Fl_Counter4stepEd @349
    _ZN10Fl_Counter4stepEdd @350
    _ZN10Fl_Counter5lstepEd @351
    _ZN10Fl_Counter6handleEi @352
    _ZN10Fl_Counter7classIdEv @353
    _ZN10Fl_Counter8textfontEi @354
    _ZN10Fl_Counter8textsizeEi @355
    _ZN10Fl_Counter9textcolorEj @356
    _ZN10Fl_CounterC1EiiiiPKc @357
    _ZN10Fl_CounterC2EiiiiPKc @358
    _ZN10Fl_CounterD0Ev @359
    _ZN10Fl_CounterD1Ev @360
    _ZN10Fl_CounterD2Ev @361
    _ZN10Fl_DisplayD0Ev @362
    _ZN10Fl_DisplayD1Ev @363
    _ZN10Fl_Printer10dialog_allE @364 DATA
    _ZN10Fl_Printer10start_pageEv @365
    _ZN10Fl_Printer11dialog_fromE @366 DATA
    _ZN10Fl_Printer11untranslateEv @367
    _ZN10Fl_Printer12dialog_pagesE @368 DATA
    _ZN10Fl_Printer12dialog_rangeE @369 DATA
    _ZN10Fl_Printer12dialog_titleE @370 DATA
    _ZN10Fl_Printer12property_useE @371 DATA
    _ZN10Fl_Printer13dialog_copiesE @372 DATA
    _ZN10Fl_Printer13dialog_copyNoE @373 DATA
    _ZN10Fl_Printer13property_modeE @374 DATA
    _ZN10Fl_Printer13property_saveE @375 DATA
    _ZN10Fl_Printer14dialog_printerE @376 DATA
    _ZN10Fl_Printer14printable_rectEPiS0_ @377
    _ZN10Fl_Printer14property_titleE @378 DATA
    _ZN10Fl_Printer15property_cancelE @379 DATA
    _ZN10Fl_Printer17dialog_propertiesE @380 DATA
    _ZN10Fl_Printer17property_pagesizeE @381 DATA
    _ZN10Fl_Printer19dialog_print_buttonE @382 DATA
    _ZN10Fl_Printer20dialog_cancel_buttonE @383 DATA
    _ZN10Fl_Printer20dialog_print_to_fileE @384 DATA
    _ZN10Fl_Printer23absolute_printable_rectEPiS0_S0_S0_ @385
    _ZN10Fl_Printer5scaleEff @386
    _ZN10Fl_Printer6originEii @387
    _ZN10Fl_Printer6rotateEf @388
    _ZN10Fl_Printer7end_jobEv @389
    _ZN10Fl_Printer7marginsEPiS0_S0_S0_ @390
    _ZN10Fl_Printer8end_pageEv @391
    _ZN10Fl_Printer9dialog_toE @392 DATA
    _ZN10Fl_Printer9start_jobEiPiS0_ @393
    _ZN10Fl_Printer9translateEii @394
    _ZN10Fl_PrinterC1Ev @395
    _ZN10Fl_PrinterC2Ev @396
    _ZN10Fl_PrinterD0Ev @397
    _ZN10Fl_PrinterD1Ev @398
    _ZN10Fl_PrinterD2Ev @399
    _ZN10Fl_Spinner13inherits_fromEPKc @400
    _ZN10Fl_Spinner15cheap_rtti_infoEv @401
    _ZN10Fl_Spinner4stepEd @402
    _ZN10Fl_Spinner4typeEh @403
    _ZN10Fl_Spinner5rangeEdd @404
    _ZN10Fl_Spinner5sb_cbEP9Fl_WidgetPS_ @405
    _ZN10Fl_Spinner5valueEd @406
    _ZN10Fl_Spinner6formatEPKc @407
    _ZN10Fl_Spinner6formatEv @408
    _ZN10Fl_Spinner6handleEi @409
    _ZN10Fl_Spinner6resizeEiiii @410
    _ZN10Fl_Spinner6updateEv @411
    _ZN10Fl_Spinner7classIdEv @412
    _ZN10Fl_Spinner7maximumEd @413
    _ZN10Fl_Spinner7minimumEd @414
    _ZN10Fl_Spinner8textfontEi @415
    _ZN10Fl_Spinner8textsizeEi @416
    _ZN10Fl_Spinner9classNameEv @417
    _ZN10Fl_Spinner9textcolorEj @418
    _ZN10Fl_SpinnerC1EiiiiPKc @419
    _ZN10Fl_SpinnerD0Ev @420
    _ZN10Fl_SpinnerD1Ev @421
    _ZN10Fl_Tooltip10enter_areaEP9Fl_WidgetiiiiPKc @422
    _ZN10Fl_Tooltip10hoverdelayEf @423
    _ZN10Fl_Tooltip10hoverdelayEv @424
    _ZN10Fl_Tooltip10textcolor_E @425 DATA
    _ZN10Fl_Tooltip11hoverdelay_E @426 DATA
    _ZN10Fl_Tooltip4exitE @427 DATA
    _ZN10Fl_Tooltip4fontEi @428
    _ZN10Fl_Tooltip4fontEv @429
    _ZN10Fl_Tooltip4sizeEi @430
    _ZN10Fl_Tooltip4sizeEv @431
    _ZN10Fl_Tooltip5colorEj @432
    _ZN10Fl_Tooltip5colorEv @433
    _ZN10Fl_Tooltip5delayEf @434
    _ZN10Fl_Tooltip5delayEv @435
    _ZN10Fl_Tooltip5enterE @436 DATA
    _ZN10Fl_Tooltip5exit_EP9Fl_Widget @437
    _ZN10Fl_Tooltip5font_E @438 DATA
    _ZN10Fl_Tooltip5size_E @439 DATA
    _ZN10Fl_Tooltip6color_E @440 DATA
    _ZN10Fl_Tooltip6delay_E @441 DATA
    _ZN10Fl_Tooltip6enableEi @442
    _ZN10Fl_Tooltip6enter_EP9Fl_Widget @443
    _ZN10Fl_Tooltip7currentEP9Fl_Widget @444
    _ZN10Fl_Tooltip7currentEv @445
    _ZN10Fl_Tooltip7disableEv @446
    _ZN10Fl_Tooltip7enabledEv @447
    _ZN10Fl_Tooltip7widget_E @448 DATA
    _ZN10Fl_Tooltip8enabled_E @449 DATA
    _ZN10Fl_Tooltip9textcolorEj @450
    _ZN10Fl_Tooltip9textcolorEv @451
    _ZN10Flv_CStyle1xEi @452
    _ZN10Flv_CStyle1yEi @453
    _ZN10Flv_CStyleC1Ev @454
    _ZN10Flv_CStyleC2Ev @455
    _ZN10Flv_CStyleaSERKS_ @456
    _ZN10Flve_Input6handleEi @457
    _ZN10Flve_InputC1EiiiiPKc @458
    _ZN10Flve_InputD0Ev @459
    _ZN10Flve_InputD1Ev @460
    _ZN10menuwindow10autoscrollEi @461
    _ZN10menuwindow12set_selectedEi @462
    _ZN10menuwindow13find_selectedEii @463
    _ZN10menuwindow4drawEv @464
    _ZN10menuwindow6handleEi @465
    _ZN10menuwindow6titlexEi @466
    _ZN10menuwindow8positionEii @467
    _ZN10menuwindow9drawentryEPK12Fl_Menu_Itemii @468
    _ZN10menuwindow9is_insideEii @469
    _ZN10menuwindowC1EPK12Fl_Menu_ItemiiiiS2_S2_iii @470
    _ZN10menuwindowC2EPK12Fl_Menu_ItemiiiiS2_S2_iii @471
    _ZN10menuwindowD0Ev @472
    _ZN10menuwindowD1Ev @473
    _ZN10menuwindowD2Ev @474
    _ZN11Fl_Adjuster12value_damageEv @475
    _ZN11Fl_Adjuster13inherits_fromEPKc @476
    _ZN11Fl_Adjuster15cheap_rtti_infoEv @477
    _ZN11Fl_Adjuster4drawEv @478
    _ZN11Fl_Adjuster4softEi @479
    _ZN11Fl_Adjuster6handleEi @480
    _ZN11Fl_Adjuster7classIdEv @481
    _ZN11Fl_AdjusterC1EiiiiPKc @482
    _ZN11Fl_AdjusterC2EiiiiPKc @483
    _ZN11Fl_AdjusterD0Ev @484
    _ZN11Fl_AdjusterD1Ev @485
    _ZN11Fl_Browser_10update_topEv @486
    _ZN11Fl_Browser_11item_selectEPvi @487
    _ZN11Fl_Browser_11redraw_lineEPv @488
    _ZN11Fl_Browser_11select_onlyEPvi @489
    _ZN11Fl_Browser_13has_scrollbarEh @490
    _ZN11Fl_Browser_13inherits_fromEPKc @491
    _ZN11Fl_Browser_14scrollbar_leftEv @492
    _ZN11Fl_Browser_14scrollbar_sizeEi @493
    _ZN11Fl_Browser_15cheap_rtti_infoEv @494
    _ZN11Fl_Browser_15scrollbar_rightEv @495
    _ZN11Fl_Browser_15scrollbar_widthEi @496
    _ZN11Fl_Browser_4drawEv @497
    _ZN11Fl_Browser_4sortEi @498
    _ZN11Fl_Browser_6handleEi @499
    _ZN11Fl_Browser_6resizeEiiii @500
    _ZN11Fl_Browser_6selectEPvii @501
    _ZN11Fl_Browser_7classIdEv @502
    _ZN11Fl_Browser_7displayEPv @503
    _ZN11Fl_Browser_8deletingEPv @504
    _ZN11Fl_Browser_8deselectEi @505
    _ZN11Fl_Browser_8new_listEv @506
    _ZN11Fl_Browser_8positionEi @507
    _ZN11Fl_Browser_8swappingEPvS0_ @508
    _ZN11Fl_Browser_8textfontEi @509
    _ZN11Fl_Browser_8textsizeEi @510
    _ZN11Fl_Browser_9find_itemEi @511
    _ZN11Fl_Browser_9hpositionEi @512
    _ZN11Fl_Browser_9insertingEPvS0_ @513
    _ZN11Fl_Browser_9item_swapEPvS0_ @514
    _ZN11Fl_Browser_9replacingEPvS0_ @515
    _ZN11Fl_Browser_9textcolorEj @516
    _ZN11Fl_Browser_C1EiiiiPKc @517
    _ZN11Fl_Browser_C2EiiiiPKc @518
    _ZN11Fl_Browser_D0Ev @519
    _ZN11Fl_Browser_D1Ev @520
    _ZN11Fl_Browser_D2Ev @521
    _ZN11Fl_Menu_Bar13inherits_fromEPKc @522
    _ZN11Fl_Menu_Bar15cheap_rtti_infoEv @523
    _ZN11Fl_Menu_Bar4drawEv @524
    _ZN11Fl_Menu_Bar6handleEi @525
    _ZN11Fl_Menu_Bar7classIdEv @526
    _ZN11Fl_Menu_BarC1EiiiiPKc @527
    _ZN11Fl_Menu_BarD0Ev @528
    _ZN11Fl_Menu_BarD1Ev @529
    _ZN11Fl_Progress13inherits_fromEPKc @530
    _ZN11Fl_Progress15cheap_rtti_infoEv @531
    _ZN11Fl_Progress4drawEv @532
    _ZN11Fl_Progress5valueEf @533
    _ZN11Fl_Progress7classIdEv @534
    _ZN11Fl_Progress7maximumEf @535
    _ZN11Fl_Progress7minimumEf @536
    _ZN11Fl_ProgressC1EiiiiPKc @537
    _ZN11Fl_ProgressC2EiiiiPKc @538
    _ZN11Fl_ProgressD0Ev @539
    _ZN11Fl_ProgressD1Ev @540
    _ZN11Fl_Valuator11handle_dragEd @541
    _ZN11Fl_Valuator12value_damageEv @542
    _ZN11Fl_Valuator13inherits_fromEPKc @543
    _ZN11Fl_Valuator14handle_releaseEv @544
    _ZN11Fl_Valuator15cheap_rtti_infoEv @545
    _ZN11Fl_Valuator4stepEd @546
    _ZN11Fl_Valuator4stepEi @547
    _ZN11Fl_Valuator5clampEd @548
    _ZN11Fl_Valuator5rangeEdd @549
    _ZN11Fl_Valuator5roundEd @550
    _ZN11Fl_Valuator5valueEd @551
    _ZN11Fl_Valuator6boundsEdd @552
    _ZN11Fl_Valuator6formatEPc @553
    _ZN11Fl_Valuator7classIdEv @554
    _ZN11Fl_Valuator7maximumEd @555
    _ZN11Fl_Valuator7minimumEd @556
    _ZN11Fl_Valuator9incrementEdi @557
    _ZN11Fl_Valuator9precisionEi @558
    _ZN11Fl_Valuator9softclampEd @559
    _ZN11Fl_ValuatorC1EiiiiPKc @560
    _ZN11Fl_ValuatorC2EiiiiPKc @561
    _ZN11Fl_ValuatorD0Ev @562
    _ZN11Fl_ValuatorD1Ev @563
    _ZN11Fl_ValuatorD2Ev @564
    _ZN11Flcc_HueBox10handle_keyEi @565
    _ZN11Flcc_HueBox13inherits_fromEPKc @566
    _ZN11Flcc_HueBox15cheap_rtti_infoEv @567
    _ZN11Flcc_HueBox4drawEv @568
    _ZN11Flcc_HueBox6handleEi @569
    _ZN11Flcc_HueBox7classIdEv @570
    _ZN11Flcc_HueBoxC1Eiiii @571
    _ZN11Flcc_HueBoxD0Ev @572
    _ZN11Flcc_HueBoxD1Ev @573
    _ZN12FLDataObject11EnumDAdviseEPP13IEnumSTATDATA@8 @574
    _ZN12FLDataObject11GetDataHereEP12tagFORMATETCP12tagSTGMEDIUM@12 @575
    _ZN12FLDataObject12QueryGetDataEP12tagFORMATETC@8 @576
    _ZN12FLDataObject13EnumFormatEtcEmPP14IEnumFORMATETC@12 @577
    _ZN12FLDataObject14QueryInterfaceERK5_GUIDPPv@12 @578
    _ZN12FLDataObject21GetCanonicalFormatEtcEP12tagFORMATETCS1_@12 @579
    _ZN12FLDataObject6AddRefEv@4 @580
    _ZN12FLDataObject7DAdviseEP12tagFORMATETCmP11IAdviseSinkPm@20 @581
    _ZN12FLDataObject7GetDataEP12tagFORMATETCP12tagSTGMEDIUM@12 @582
    _ZN12FLDataObject7ReleaseEv@4 @583
    _ZN12FLDataObject7SetDataEP12tagFORMATETCP12tagSTGMEDIUMi@16 @584
    _ZN12FLDataObject9DUnadviseEm@8 @585
    _ZN12FLDropSource12GiveFeedbackEm@8 @586
    _ZN12FLDropSource14QueryInterfaceERK5_GUIDPPv@12 @587
    _ZN12FLDropSource17QueryContinueDragEim@12 @588
    _ZN12FLDropSource6AddRefEv@4 @589
    _ZN12FLDropSource7ReleaseEv@4 @590
    _ZN12FLDropTarget11currDragRefE @591 DATA
    _ZN12FLDropTarget12currDragDataE @592 DATA
    _ZN12FLDropTarget12currDragSizeE @593 DATA
    _ZN12FLDropTarget14QueryInterfaceERK5_GUIDPPv@12 @594
    _ZN12FLDropTarget14currDragResultE @595 DATA
    _ZN12FLDropTarget4DropEP11IDataObjectm8tagPOINTPm@24 @596
    _ZN12FLDropTarget6AddRefEv@4 @597
    _ZN12FLDropTarget7ReleaseEv@4 @598
    _ZN12FLDropTarget8DragOverEm8tagPOINTPm@20 @599
    _ZN12FLDropTarget9DragEnterEP11IDataObjectm8tagPOINTPm@24 @600
    _ZN12FLDropTarget9DragLeaveEv@4 @601
    _ZN12Fl_BMP_Image13inherits_fromEPKc @602
    _ZN12Fl_BMP_Image15cheap_rtti_infoEv @603
    _ZN12Fl_BMP_Image7classIdEv @604
    _ZN12Fl_BMP_ImageC1EPKc @605
    _ZN12Fl_BMP_ImageC2EPKc @606
    _ZN12Fl_BMP_ImageD0Ev @607
    _ZN12Fl_BMP_ImageD1Ev @608
    _ZN12Fl_File_Icon10add_vertexEff @609
    _ZN12Fl_File_Icon10load_imageEPKc @610
    _ZN12Fl_File_Icon17load_system_iconsEv @611
    _ZN12Fl_File_Icon3addEs @612
    _ZN12Fl_File_Icon4drawEiiiiji @613
    _ZN12Fl_File_Icon4findEPKci @614
    _ZN12Fl_File_Icon4loadEPKc @615
    _ZN12Fl_File_Icon4nextEv @616
    _ZN12Fl_File_Icon4sizeEv @617
    _ZN12Fl_File_Icon4typeEv @618
    _ZN12Fl_File_Icon5clearEv @619
    _ZN12Fl_File_Icon5firstEv @620
    _ZN12Fl_File_Icon5labelEP9Fl_Widget @621
    _ZN12Fl_File_Icon5valueEv @622
    _ZN12Fl_File_Icon6first_E @623 DATA
    _ZN12Fl_File_Icon7patternEv @624
    _ZN12Fl_File_Icon8load_ftiEPKc @625
    _ZN12Fl_File_Icon9add_colorEj @626
    _ZN12Fl_File_Icon9labeltypeEPK8Fl_Labeliiiij @627
    _ZN12Fl_File_IconC1EPKciiPs @628
    _ZN12Fl_File_IconC2EPKciiPs @629
    _ZN12Fl_File_IconD1Ev @630
    _ZN12Fl_File_IconD2Ev @631
    _ZN12Fl_Fill_DialC1EiiiiPKc @632
    _ZN12Fl_Fill_DialD0Ev @633
    _ZN12Fl_Fill_DialD1Ev @634
    _ZN12Fl_GIF_Image13inherits_fromEPKc @635
    _ZN12Fl_GIF_Image15cheap_rtti_infoEv @636
    _ZN12Fl_GIF_Image7classIdEv @637
    _ZN12Fl_GIF_ImageC1EPKc @638
    _ZN12Fl_GIF_ImageC2EPKc @639
    _ZN12Fl_GIF_ImageD0Ev @640
    _ZN12Fl_GIF_ImageD1Ev @641
    _ZN12Fl_Help_View10add_targetEPKci @642
    _ZN12Fl_Help_View10get_lengthEPKc @643
    _ZN12Fl_Help_View10select_allEv @644
    _ZN12Fl_Help_View11current_posE @645 DATA
    _ZN12Fl_Help_View11follow_linkEP12Fl_Help_Link @646
    _ZN12Fl_Help_View12current_viewE @647 DATA
    _ZN12Fl_Help_View12format_tableEPiS0_PKc @648
    _ZN12Fl_Help_View13end_selectionEi @649
    _ZN12Fl_Help_View13inherits_fromEPKc @650
    _ZN12Fl_Help_View14scrollbar_sizeEi @651
    _ZN12Fl_Help_View14selection_lastE @652 DATA
    _ZN12Fl_Help_View15begin_selectionEv @653
    _ZN12Fl_Help_View15cheap_rtti_infoEv @654
    _ZN12Fl_Help_View15clear_selectionEv @655
    _ZN12Fl_Help_View15compare_targetsEPK14Fl_Help_TargetS2_ @656
    _ZN12Fl_Help_View15selection_firstE @657 DATA
    _ZN12Fl_Help_View16extend_selectionEv @658
    _ZN12Fl_Help_View18hv_selection_colorE @659 DATA
    _ZN12Fl_Help_View19selection_drag_lastE @660 DATA
    _ZN12Fl_Help_View19selection_push_lastE @661 DATA
    _ZN12Fl_Help_View20selection_drag_firstE @662 DATA
    _ZN12Fl_Help_View20selection_push_firstE @663 DATA
    _ZN12Fl_Help_View22clear_global_selectionEv @664
    _ZN12Fl_Help_View23hv_selection_text_colorE @665 DATA
    _ZN12Fl_Help_View4drawEv @666
    _ZN12Fl_Help_View4findEPKci @667
    _ZN12Fl_Help_View4linkEPFPKcP9Fl_WidgetS1_E @668
    _ZN12Fl_Help_View4loadEPKc @669
    _ZN12Fl_Help_View4sizeEii @670
    _ZN12Fl_Help_View5titleEv @671
    _ZN12Fl_Help_View5valueEPKc @672
    _ZN12Fl_Help_View6formatEv @673
    _ZN12Fl_Help_View6handleEi @674
    _ZN12Fl_Help_View6resizeEiiii @675
    _ZN12Fl_Help_View7classIdEv @676
    _ZN12Fl_Help_View7hv_drawEPKcii @677
    _ZN12Fl_Help_View7mouse_xE @678 DATA
    _ZN12Fl_Help_View7mouse_yE @679 DATA
    _ZN12Fl_Help_View7toplineEPKc @680
    _ZN12Fl_Help_View7toplineEi @681
    _ZN12Fl_Help_View8add_linkEPKciiii @682
    _ZN12Fl_Help_View8do_alignEP13Fl_Help_BlockiiiRi @683
    _ZN12Fl_Help_View8get_attrEPKcS1_Pci @684
    _ZN12Fl_Help_View8leftlineEi @685
    _ZN12Fl_Help_View8selectedE @686 DATA
    _ZN12Fl_Help_View8textfontEi @687
    _ZN12Fl_Help_View8textsizeEi @688
    _ZN12Fl_Help_View9add_blockEPKciiiihj @689
    _ZN12Fl_Help_View9draw_modeE @690 DATA
    _ZN12Fl_Help_View9find_linkEii @691
    _ZN12Fl_Help_View9free_dataEv @692
    _ZN12Fl_Help_View9get_alignEPKci @693
    _ZN12Fl_Help_View9get_colorEPKcj @694
    _ZN12Fl_Help_View9get_imageEPKcii @695
    _ZN12Fl_Help_View9textcolorEj @696
    _ZN12Fl_Help_ViewC1EiiiiPKc @697
    _ZN12Fl_Help_ViewC2EiiiiPKc @698
    _ZN12Fl_Help_ViewD0Ev @699
    _ZN12Fl_Help_ViewD1Ev @700
    _ZN12Fl_Help_ViewD2Ev @701
    _ZN12Fl_Int_Input13inherits_fromEPKc @702
    _ZN12Fl_Int_Input15cheap_rtti_infoEv @703
    _ZN12Fl_Int_Input7classIdEv @704
    _ZN12Fl_Int_Input9classNameEv @705
    _ZN12Fl_Int_InputC1EiiiiPKc @706
    _ZN12Fl_Int_InputD0Ev @707
    _ZN12Fl_Int_InputD1Ev @708
    _ZN12Fl_Line_Dial13inherits_fromEPKc @709
    _ZN12Fl_Line_Dial15cheap_rtti_infoEv @710
    _ZN12Fl_Line_Dial7classIdEv @711
    _ZN12Fl_Line_Dial9classNameEv @712
    _ZN12Fl_Line_DialC1EiiiiPKc @713
    _ZN12Fl_Line_DialD0Ev @714
    _ZN12Fl_Line_DialD1Ev @715
    _ZN12Fl_Menu_Item10deactivateEv @716
    _ZN12Fl_Menu_Item3addEPKcS1_PFvP9Fl_WidgetPvES4_i @717
    _ZN12Fl_Menu_Item3addEPKciPFvP9Fl_WidgetPvES4_i @718
    _ZN12Fl_Menu_Item3setEv @719
    _ZN12Fl_Menu_Item4hideEv @720
    _ZN12Fl_Menu_Item4nextEi @721
    _ZN12Fl_Menu_Item4showEv @722
    _ZN12Fl_Menu_Item5checkEv @723
    _ZN12Fl_Menu_Item5clearEv @724
    _ZN12Fl_Menu_Item5firstEv @725
    _ZN12Fl_Menu_Item5imageEP8Fl_Image @726
    _ZN12Fl_Menu_Item5labelE12Fl_LabeltypePKc @727
    _ZN12Fl_Menu_Item5labelEPKc @728
    _ZN12Fl_Menu_Item6insertEiPKciPFvP9Fl_WidgetPvES4_i @729
    _ZN12Fl_Menu_Item7setonlyEv @730
    _ZN12Fl_Menu_Item7uncheckEv @731
    _ZN12Fl_Menu_Item8activateEv @732
    _ZN12Fl_Menu_Item8argumentEl @733
    _ZN12Fl_Menu_Item8callbackEPFvP9Fl_WidgetE @734
    _ZN12Fl_Menu_Item8shortcutEi @735
    _ZN12Fl_Menu_Item9labeltypeE12Fl_Labeltype @736
    _ZN12Fl_Menu_Item9user_dataEPv @737
    _ZN12Fl_PNG_ImageC1EPKc @738
    _ZN12Fl_PNG_ImageC2EPKc @739
    _ZN12Fl_PNG_ImageD0Ev @740
    _ZN12Fl_PNG_ImageD1Ev @741
    _ZN12Fl_PNM_Image13inherits_fromEPKc @742
    _ZN12Fl_PNM_Image15cheap_rtti_infoEv @743
    _ZN12Fl_PNM_Image7classIdEv @744
    _ZN12Fl_PNM_ImageC1EPKc @745
    _ZN12Fl_PNM_ImageC2EPKc @746
    _ZN12Fl_PNM_ImageD0Ev @747
    _ZN12Fl_PNM_ImageD1Ev @748
    _ZN12Fl_RGB_Image10desaturateEv @749
    _ZN12Fl_RGB_Image13color_averageEjf @750
    _ZN12Fl_RGB_Image13inherits_fromEPKc @751
    _ZN12Fl_RGB_Image15cheap_rtti_infoEv @752
    _ZN12Fl_RGB_Image19generic_device_drawEiiiiii @753
    _ZN12Fl_RGB_Image4copyEii @754
    _ZN12Fl_RGB_Image4copyEv @755
    _ZN12Fl_RGB_Image4drawEii @756
    _ZN12Fl_RGB_Image4drawEiiiiii @757
    _ZN12Fl_RGB_Image5labelEP12Fl_Menu_Item @758
    _ZN12Fl_RGB_Image5labelEP9Fl_Widget @759
    _ZN12Fl_RGB_Image7classIdEv @760
    _ZN12Fl_RGB_Image7uncacheEv @761
    _ZN12Fl_RGB_ImageC1EPKhiiii @762
    _ZN12Fl_RGB_ImageD0Ev @763
    _ZN12Fl_RGB_ImageD1Ev @764
    _ZN12Fl_RGB_ImageD2Ev @765
    _ZN12Fl_Scrollbar10timeout_cbEPv @766
    _ZN12Fl_Scrollbar12increment_cbEv @767
    _ZN12Fl_Scrollbar13inherits_fromEPKc @768
    _ZN12Fl_Scrollbar15cheap_rtti_infoEv @769
    _ZN12Fl_Scrollbar4drawEv @770
    _ZN12Fl_Scrollbar5valueEi @771
    _ZN12Fl_Scrollbar5valueEiiii @772
    _ZN12Fl_Scrollbar6handleEi @773
    _ZN12Fl_Scrollbar7classIdEv @774
    _ZN12Fl_Scrollbar8linesizeEi @775
    _ZN12Fl_ScrollbarC1EiiiiPKc @776
    _ZN12Fl_ScrollbarC2EiiiiPKc @777
    _ZN12Fl_ScrollbarD0Ev @778
    _ZN12Fl_ScrollbarD1Ev @779
    _ZN12Fl_ScrollbarD2Ev @780
    _ZN12Fl_Table_Row10CharVector4initEv @781
    _ZN12Fl_Table_Row10CharVectorC1Ev @782
    _ZN12Fl_Table_Row10select_rowEii @783
    _ZN12Fl_Table_Row12row_selectedEi @784
    _ZN12Fl_Table_Row13inherits_fromEPKc @785
    _ZN12Fl_Table_Row15cheap_rtti_infoEv @786
    _ZN12Fl_Table_Row15select_all_rowsEi @787
    _ZN12Fl_Table_Row4rowsEi @788
    _ZN12Fl_Table_Row4rowsEv @789
    _ZN12Fl_Table_Row4typeENS_18TableRowSelectModeE @790
    _ZN12Fl_Table_Row5clearEv @791
    _ZN12Fl_Table_Row6handleEi @792
    _ZN12Fl_Table_Row7classIdEv @793
    _ZN12Fl_Table_RowC1EiiiiPKc @794
    _ZN12Fl_Table_RowD0Ev @795
    _ZN12Fl_Table_RowD1Ev @796
    _ZN12Fl_Tree_Item10deactivateEv @797
    _ZN12Fl_Tree_Item10find_childEPKc @798
    _ZN12Fl_Tree_Item10find_childEPS_ @799
    _ZN12Fl_Tree_Item10labelcolorEj @800
    _ZN12Fl_Tree_Item10select_allEv @801
    _ZN12Fl_Tree_Item11open_toggleEv @802
    _ZN12Fl_Tree_Item12deselect_allEv @803
    _ZN12Fl_Tree_Item12find_clickedERK13Fl_Tree_Prefs @804
    _ZN12Fl_Tree_Item12hide_widgetsEv @805
    _ZN12Fl_Tree_Item12insert_aboveERK13Fl_Tree_PrefsPKc @806
    _ZN12Fl_Tree_Item12labelbgcolorEj @807
    _ZN12Fl_Tree_Item12labelfgcolorEj @808
    _ZN12Fl_Tree_Item12remove_childEPKc @809
    _ZN12Fl_Tree_Item12remove_childEPS_ @810
    _ZN12Fl_Tree_Item12show_widgetsEv @811
    _ZN12Fl_Tree_Item13select_toggleEv @812
    _ZN12Fl_Tree_Item13swap_childrenEPS_S0_ @813
    _ZN12Fl_Tree_Item13swap_childrenEii @814
    _ZN12Fl_Tree_Item14clear_childrenEv @815
    _ZN12Fl_Tree_Item23draw_vertical_connectorEiiiRK13Fl_Tree_Prefs @816
    _ZN12Fl_Tree_Item25draw_horizontal_connectorEiiiRK13Fl_Tree_Prefs @817
    _ZN12Fl_Tree_Item3addERK13Fl_Tree_PrefsPKc @818
    _ZN12Fl_Tree_Item3addERK13Fl_Tree_PrefsPPc @819
    _ZN12Fl_Tree_Item4drawEiRiiP9Fl_WidgetRK13Fl_Tree_Prefsi @820
    _ZN12Fl_Tree_Item4nextEv @821
    _ZN12Fl_Tree_Item4openEv @822
    _ZN12Fl_Tree_Item4prevEv @823
    _ZN12Fl_Tree_Item5childEi @824
    _ZN12Fl_Tree_Item5closeEv @825
    _ZN12Fl_Tree_Item5labelEPKc @826
    _ZN12Fl_Tree_Item6insertERK13Fl_Tree_PrefsPKci @827
    _ZN12Fl_Tree_Item6parentEPS_ @828
    _ZN12Fl_Tree_Item6parentEv @829
    _ZN12Fl_Tree_Item6selectEi @830
    _ZN12Fl_Tree_Item6widgetEP9Fl_Widget @831
    _ZN12Fl_Tree_Item8activateEi @832
    _ZN12Fl_Tree_Item8deselectEv @833
    _ZN12Fl_Tree_Item8usericonEP8Fl_Image @834
    _ZN12Fl_Tree_Item9find_itemEPPc @835
    _ZN12Fl_Tree_Item9labelfontEi @836
    _ZN12Fl_Tree_Item9labelsizeEi @837
    _ZN12Fl_Tree_Item9user_dataEPv @838
    _ZN12Fl_Tree_ItemC1EPKS_ @839
    _ZN12Fl_Tree_ItemC1ERK13Fl_Tree_Prefs @840
    _ZN12Fl_Tree_ItemC2EPKS_ @841
    _ZN12Fl_Tree_ItemC2ERK13Fl_Tree_Prefs @842
    _ZN12Fl_Tree_ItemD1Ev @843
    _ZN12Fl_Tree_ItemD2Ev @844
    _ZN12Fl_XBM_Image13inherits_fromEPKc @845
    _ZN12Fl_XBM_Image15cheap_rtti_infoEv @846
    _ZN12Fl_XBM_Image7classIdEv @847
    _ZN12Fl_XBM_ImageC1EPKc @848
    _ZN12Fl_XBM_ImageC2EPKc @849
    _ZN12Fl_XBM_ImageD0Ev @850
    _ZN12Fl_XBM_ImageD1Ev @851
    _ZN12Fl_XPM_Image13inherits_fromEPKc @852
    _ZN12Fl_XPM_Image15cheap_rtti_infoEv @853
    _ZN12Fl_XPM_Image7classIdEv @854
    _ZN12Fl_XPM_ImageC1EPKc @855
    _ZN12Fl_XPM_ImageC2EPKc @856
    _ZN12Fl_XPM_ImageD0Ev @857
    _ZN12Fl_XPM_ImageD1Ev @858
    _ZN13Fl_File_Input10errorcolorEj @859
    _ZN13Fl_File_Input12draw_buttonsEv @860
    _ZN13Fl_File_Input13handle_buttonEi @861
    _ZN13Fl_File_Input13inherits_fromEPKc @862
    _ZN13Fl_File_Input14update_buttonsEv @863
    _ZN13Fl_File_Input15cheap_rtti_infoEv @864
    _ZN13Fl_File_Input4drawEv @865
    _ZN13Fl_File_Input5valueEPKc @866
    _ZN13Fl_File_Input5valueEPKci @867
    _ZN13Fl_File_Input5valueEv @868
    _ZN13Fl_File_Input6handleEi @869
    _ZN13Fl_File_Input7classIdEv @870
    _ZN13Fl_File_Input8down_boxE10Fl_Boxtype @871
    _ZN13Fl_File_InputC1EiiiiPKc @872
    _ZN13Fl_File_InputC2EiiiiPKc @873
    _ZN13Fl_File_InputD0Ev @874
    _ZN13Fl_File_InputD1Ev @875
    _ZN13Fl_Hor_Slider13inherits_fromEPKc @876
    _ZN13Fl_Hor_Slider15cheap_rtti_infoEv @877
    _ZN13Fl_Hor_Slider7classIdEv @878
    _ZN13Fl_Hor_Slider9classNameEv @879
    _ZN13Fl_Hor_SliderC1EiiiiPKc @880
    _ZN13Fl_Hor_SliderD0Ev @881
    _ZN13Fl_Hor_SliderD1Ev @882
    _ZN13Fl_JPEG_Image13inherits_fromEPKc @883
    _ZN13Fl_JPEG_Image15cheap_rtti_infoEv @884
    _ZN13Fl_JPEG_Image7classIdEv @885
    _ZN13Fl_JPEG_ImageC1EPKc @886
    _ZN13Fl_JPEG_ImageC1EPKcPKh @887
    _ZN13Fl_JPEG_ImageC2EPKc @888
    _ZN13Fl_JPEG_ImageC2EPKcPKh @889
    _ZN13Fl_JPEG_ImageD0Ev @890
    _ZN13Fl_JPEG_ImageD1Ev @891
    _ZN13Fl_Positioner13inherits_fromEPKc @892
    _ZN13Fl_Positioner15cheap_rtti_infoEv @893
    _ZN13Fl_Positioner4drawEiiii @894
    _ZN13Fl_Positioner4drawEv @895
    _ZN13Fl_Positioner5valueEdd @896
    _ZN13Fl_Positioner5xstepEd @897
    _ZN13Fl_Positioner5ystepEd @898
    _ZN13Fl_Positioner6handleEi @899
    _ZN13Fl_Positioner6handleEiiiii @900
    _ZN13Fl_Positioner6xvalueEd @901
    _ZN13Fl_Positioner6yvalueEd @902
    _ZN13Fl_Positioner7classIdEv @903
    _ZN13Fl_Positioner7xboundsEdd @904
    _ZN13Fl_Positioner7yboundsEdd @905
    _ZN13Fl_Positioner8xmaximumEd @906
    _ZN13Fl_Positioner8xminimumEd @907
    _ZN13Fl_Positioner8ymaximumEd @908
    _ZN13Fl_Positioner8yminimumEd @909
    _ZN13Fl_PositionerC1EiiiiPKc @910
    _ZN13Fl_PositionerC2EiiiiPKc @911
    _ZN13Fl_PositionerD0Ev @912
    _ZN13Fl_PositionerD1Ev @913
    _ZN13Fl_TooltipBox4drawEv @914
    _ZN13Fl_TooltipBox4showEv @915
    _ZN13Fl_TooltipBox6layoutEv @916
    _ZN13Fl_TooltipBoxD0Ev @917
    _ZN13Fl_TooltipBoxD1Ev @918
    _ZN13Fl_Tree_Prefs10marginleftEi @919
    _ZN13Fl_Tree_Prefs10selectmodeE14Fl_Tree_Select @920
    _ZN13Fl_Tree_Prefs11linespacingEi @921
    _ZN13Fl_Tree_Prefs11selectcolorEj @922
    _ZN13Fl_Tree_Prefs12showcollapseEi @923
    _ZN13Fl_Tree_Prefs13inactivecolorEj @924
    _ZN13Fl_Tree_Prefs14connectorcolorEj @925
    _ZN13Fl_Tree_Prefs14connectorstyleE17Fl_Tree_Connector @926
    _ZN13Fl_Tree_Prefs14connectorstyleEi @927
    _ZN13Fl_Tree_Prefs14connectorwidthEi @928
    _ZN13Fl_Tree_Prefs15labelmarginleftEi @929
    _ZN13Fl_Tree_Prefs18usericonmarginleftEi @930
    _ZN13Fl_Tree_Prefs22openchild_marginbottomEi @931
    _ZN13Fl_Tree_Prefs7bgcolorEj @932
    _ZN13Fl_Tree_Prefs7fgcolorEj @933
    _ZN13Fl_Tree_Prefs8openiconEP8Fl_Image @934
    _ZN13Fl_Tree_Prefs8showrootEi @935
    _ZN13Fl_Tree_Prefs8usericonEP8Fl_Image @936
    _ZN13Fl_Tree_Prefs9closeiconEP8Fl_Image @937
    _ZN13Fl_Tree_Prefs9labelfontEi @938
    _ZN13Fl_Tree_Prefs9labelsizeEi @939
    _ZN13Fl_Tree_Prefs9margintopEi @940
    _ZN13Fl_Tree_Prefs9selectboxE10Fl_Boxtype @941
    _ZN13Fl_Tree_Prefs9sortorderE12Fl_Tree_Sort @942
    _ZN13Fl_Tree_PrefsC1Ev @943
    _ZN13Fl_Tree_PrefsC2Ev @944
    _ZN13Flcc_ValueBox10handle_keyEi @945
    _ZN13Flcc_ValueBox13inherits_fromEPKc @946
    _ZN13Flcc_ValueBox15cheap_rtti_infoEv @947
    _ZN13Flcc_ValueBox4drawEv @948
    _ZN13Flcc_ValueBox6handleEi @949
    _ZN13Flcc_ValueBox7classIdEv @950
    _ZN13Flcc_ValueBoxC1Eiiii @951
    _ZN13Flcc_ValueBoxD0Ev @952
    _ZN13Flcc_ValueBoxD1Ev @953
    _ZN13Lua_Fl_Pixmap10myset_dataEPKPKc @954
    _ZN13Lua_Fl_PixmapC1EP9lua_Statei @955
    _ZN13Lua_Fl_PixmapC2EP9lua_Statei @956
    _ZN13Lua_Fl_PixmapD0Ev @957
    _ZN13Lua_Fl_PixmapD1Ev @958
    _ZN14Fl_Fill_SliderC1EiiiiPKc @959
    _ZN14Fl_Fill_SliderD0Ev @960
    _ZN14Fl_Fill_SliderD1Ev @961
    _ZN14Fl_Float_InputC1EiiiiPKc @962
    _ZN14Fl_Float_InputD0Ev @963
    _ZN14Fl_Float_InputD1Ev @964
    _ZN14Fl_GDI_DisplayD0Ev @965
    _ZN14Fl_GDI_DisplayD1Ev @966
    _ZN14Fl_Help_Dialog10cb_back__iEP9Fl_ButtonPv @967
    _ZN14Fl_Help_Dialog10cb_find__iEP8Fl_InputPv @968
    _ZN14Fl_Help_Dialog10cb_larger_EP9Fl_ButtonPv @969
    _ZN14Fl_Help_Dialog10cb_view__iEP12Fl_Help_ViewPv @970
    _ZN14Fl_Help_Dialog11cb_forward_EP9Fl_ButtonPv @971
    _ZN14Fl_Help_Dialog11cb_smaller_EP9Fl_ButtonPv @972
    _ZN14Fl_Help_Dialog12cb_larger__iEP9Fl_ButtonPv @973
    _ZN14Fl_Help_Dialog13cb_forward__iEP9Fl_ButtonPv @974
    _ZN14Fl_Help_Dialog13cb_smaller__iEP9Fl_ButtonPv @975
    _ZN14Fl_Help_Dialog13inherits_fromEPKc @976
    _ZN14Fl_Help_Dialog15cheap_rtti_infoEv @977
    _ZN14Fl_Help_Dialog1hEv @978
    _ZN14Fl_Help_Dialog1wEv @979
    _ZN14Fl_Help_Dialog1xEv @980
    _ZN14Fl_Help_Dialog1yEv @981
    _ZN14Fl_Help_Dialog4hideEv @982
    _ZN14Fl_Help_Dialog4loadEPKc @983
    _ZN14Fl_Help_Dialog4showEiPPc @984
    _ZN14Fl_Help_Dialog4showEv @985
    _ZN14Fl_Help_Dialog5valueEPKc @986
    _ZN14Fl_Help_Dialog6resizeEiiii @987
    _ZN14Fl_Help_Dialog7classIdEv @988
    _ZN14Fl_Help_Dialog7toplineEPKc @989
    _ZN14Fl_Help_Dialog7toplineEi @990
    _ZN14Fl_Help_Dialog7visibleEv @991
    _ZN14Fl_Help_Dialog8cb_back_EP9Fl_ButtonPv @992
    _ZN14Fl_Help_Dialog8cb_find_EP8Fl_InputPv @993
    _ZN14Fl_Help_Dialog8cb_view_EP12Fl_Help_ViewPv @994
    _ZN14Fl_Help_Dialog8positionEii @995
    _ZN14Fl_Help_Dialog8textsizeEi @996
    _ZN14Fl_Help_Dialog8textsizeEv @997
    _ZN14Fl_Help_DialogC1Ev @998
    _ZN14Fl_Help_DialogC2Ev @999
    _ZN14Fl_Help_DialogD1Ev @1000
    _ZN14Fl_Help_DialogD2Ev @1001
    _ZN14Fl_Menu_Button13inherits_fromEPKc @1002
    _ZN14Fl_Menu_Button15cheap_rtti_infoEv @1003
    _ZN14Fl_Menu_Button4drawEv @1004
    _ZN14Fl_Menu_Button5popupEv @1005
    _ZN14Fl_Menu_Button6handleEi @1006
    _ZN14Fl_Menu_Button7classIdEv @1007
    _ZN14Fl_Menu_Button9classNameEv @1008
    _ZN14Fl_Menu_ButtonC1EiiiiPKc @1009
    _ZN14Fl_Menu_ButtonC2EiiiiPKc @1010
    _ZN14Fl_Menu_ButtonD0Ev @1011
    _ZN14Fl_Menu_ButtonD1Ev @1012
    _ZN14Fl_Menu_ButtonD2Ev @1013
    _ZN14Fl_Menu_Window11set_overlayEv @1014
    _ZN14Fl_Menu_Window13clear_overlayEv @1015
    _ZN14Fl_Menu_Window13inherits_fromEPKc @1016
    _ZN14Fl_Menu_Window15cheap_rtti_infoEv @1017
    _ZN14Fl_Menu_Window4hideEv @1018
    _ZN14Fl_Menu_Window4showEv @1019
    _ZN14Fl_Menu_Window5eraseEv @1020
    _ZN14Fl_Menu_Window5flushEv @1021
    _ZN14Fl_Menu_Window7classIdEv @1022
    _ZN14Fl_Menu_Window7overlayEv @1023
    _ZN14Fl_Menu_WindowC1EiiPKc @1024
    _ZN14Fl_Menu_WindowC1EiiiiPKc @1025
    _ZN14Fl_Menu_WindowD0Ev @1026
    _ZN14Fl_Menu_WindowD1Ev @1027
    _ZN14Fl_Menu_WindowD2Ev @1028
    _ZN14Fl_Multi_Label5labelEP12Fl_Menu_Item @1029
    _ZN14Fl_Multi_Label5labelEP9Fl_Widget @1030
    _ZN14Fl_Nice_Slider13inherits_fromEPKc @1031
    _ZN14Fl_Nice_Slider15cheap_rtti_infoEv @1032
    _ZN14Fl_Nice_Slider7classIdEv @1033
    _ZN14Fl_Nice_Slider9classNameEv @1034
    _ZN14Fl_Nice_SliderC1EiiiiPKc @1035
    _ZN14Fl_Nice_SliderD0Ev @1036
    _ZN14Fl_Nice_SliderD1Ev @1037
    _ZN14Fl_Preferences10nameBufferE @1038 DATA
    _ZN14Fl_Preferences10uuidBufferE @1039 DATA
    _ZN14Fl_Preferences11deleteEntryEPKc @1040
    _ZN14Fl_Preferences11deleteGroupEPKc @1041
    _ZN14Fl_Preferences11entryExistsEPKc @1042
    _ZN14Fl_Preferences11groupExistsEPKc @1043
    _ZN14Fl_Preferences12runtimePrefsE @1044 DATA
    _ZN14Fl_Preferences15deleteAllGroupsEv @1045
    _ZN14Fl_Preferences15getUserdataPathEPci @1046
    _ZN14Fl_Preferences16deleteAllEntriesEv @1047
    _ZN14Fl_Preferences3getEPKcPcS1_i @1048
    _ZN14Fl_Preferences3getEPKcPvPKvii @1049
    _ZN14Fl_Preferences3getEPKcRPcS1_ @1050
    _ZN14Fl_Preferences3getEPKcRPvPKvi @1051
    _ZN14Fl_Preferences3getEPKcRdd @1052
    _ZN14Fl_Preferences3getEPKcRff @1053
    _ZN14Fl_Preferences3getEPKcRii @1054
    _ZN14Fl_Preferences3setEPKcPKvi @1055
    _ZN14Fl_Preferences3setEPKcS1_ @1056
    _ZN14Fl_Preferences3setEPKcd @1057
    _ZN14Fl_Preferences3setEPKcdi @1058
    _ZN14Fl_Preferences3setEPKcf @1059
    _ZN14Fl_Preferences3setEPKcfi @1060
    _ZN14Fl_Preferences3setEPKci @1061
    _ZN14Fl_Preferences4NameC1EPKcz @1062
    _ZN14Fl_Preferences4NameC1Ej @1063
    _ZN14Fl_Preferences4NameC2EPKcz @1064
    _ZN14Fl_Preferences4NameC2Ej @1065
    _ZN14Fl_Preferences4NameD1Ev @1066
    _ZN14Fl_Preferences4NameD2Ev @1067
    _ZN14Fl_Preferences4Node11createIndexEv @1068
    _ZN14Fl_Preferences4Node11deleteEntryEPKc @1069
    _ZN14Fl_Preferences4Node11deleteIndexEv @1070
    _ZN14Fl_Preferences4Node11updateIndexEv @1071
    _ZN14Fl_Preferences4Node12lastEntrySetE @1072 DATA
    _ZN14Fl_Preferences4Node16deleteAllEntriesEv @1073
    _ZN14Fl_Preferences4Node17deleteAllChildrenEv @1074
    _ZN14Fl_Preferences4Node3addEPKc @1075
    _ZN14Fl_Preferences4Node3getEPKc @1076
    _ZN14Fl_Preferences4Node3setEPKc @1077
    _ZN14Fl_Preferences4Node3setEPKcS2_ @1078
    _ZN14Fl_Preferences4Node4findEPKc @1079
    _ZN14Fl_Preferences4Node4nameEv @1080
    _ZN14Fl_Preferences4Node4pathEv @1081
    _ZN14Fl_Preferences4Node5childEi @1082
    _ZN14Fl_Preferences4Node5dirtyEv @1083
    _ZN14Fl_Preferences4Node5writeEP6_iobuf @1084
    _ZN14Fl_Preferences4Node6copyToEP7Fl_TreeP12Fl_Tree_Item @1085
    _ZN14Fl_Preferences4Node6removeEv @1086
    _ZN14Fl_Preferences4Node6searchEPKci @1087
    _ZN14Fl_Preferences4Node8addChildEPKc @1088
    _ZN14Fl_Preferences4Node8findRootEv @1089
    _ZN14Fl_Preferences4Node8getEntryEPKc @1090
    _ZN14Fl_Preferences4Node9childNodeEi @1091
    _ZN14Fl_Preferences4Node9nChildrenEv @1092
    _ZN14Fl_Preferences4Node9setParentEPS0_ @1093
    _ZN14Fl_Preferences4NodeC1EPKc @1094
    _ZN14Fl_Preferences4NodeC2EPKc @1095
    _ZN14Fl_Preferences4NodeD1Ev @1096
    _ZN14Fl_Preferences4NodeD2Ev @1097
    _ZN14Fl_Preferences4nameEv @1098
    _ZN14Fl_Preferences4pathEv @1099
    _ZN14Fl_Preferences4sizeEPKc @1100
    _ZN14Fl_Preferences5clearEv @1101
    _ZN14Fl_Preferences5entryEi @1102
    _ZN14Fl_Preferences5flushEv @1103
    _ZN14Fl_Preferences5groupEi @1104
    _ZN14Fl_Preferences6copyToEP7Fl_Tree @1105
    _ZN14Fl_Preferences6groupsEv @1106
    _ZN14Fl_Preferences7entriesEv @1107
    _ZN14Fl_Preferences7newUUIDEv @1108
    _ZN14Fl_Preferences8RootNode4readEv @1109
    _ZN14Fl_Preferences8RootNode5writeEv @1110
    _ZN14Fl_Preferences8RootNode7getPathEPci @1111
    _ZN14Fl_Preferences8RootNodeC1EPS_ @1112
    _ZN14Fl_Preferences8RootNodeC1EPS_NS_4RootEPKcS4_ @1113
    _ZN14Fl_Preferences8RootNodeC1EPS_PKcS3_S3_ @1114
    _ZN14Fl_Preferences8RootNodeC2EPS_ @1115
    _ZN14Fl_Preferences8RootNodeC2EPS_NS_4RootEPKcS4_ @1116
    _ZN14Fl_Preferences8RootNodeC2EPS_PKcS3_S3_ @1117
    _ZN14Fl_Preferences8RootNodeD1Ev @1118
    _ZN14Fl_Preferences8RootNodeD2Ev @1119
    _ZN14Fl_PreferencesC1ENS_4RootEPKcS2_ @1120
    _ZN14Fl_PreferencesC1EPKcS1_S1_ @1121
    _ZN14Fl_PreferencesC1EPS_PKc @1122
    _ZN14Fl_PreferencesC1EPS_i @1123
    _ZN14Fl_PreferencesC1EPv @1124
    _ZN14Fl_PreferencesC1ERKS_ @1125
    _ZN14Fl_PreferencesC1ERS_PKc @1126
    _ZN14Fl_PreferencesC1ERS_i @1127
    _ZN14Fl_PreferencesC2ENS_4RootEPKcS2_ @1128
    _ZN14Fl_PreferencesC2EPKcS1_S1_ @1129
    _ZN14Fl_PreferencesC2EPS_PKc @1130
    _ZN14Fl_PreferencesC2EPS_i @1131
    _ZN14Fl_PreferencesC2EPv @1132
    _ZN14Fl_PreferencesC2ERKS_ @1133
    _ZN14Fl_PreferencesC2ERS_PKc @1134
    _ZN14Fl_PreferencesC2ERS_i @1135
    _ZN14Fl_PreferencesD1Ev @1136
    _ZN14Fl_PreferencesD2Ev @1137
    _ZN14Fl_PreferencesaSERKS_ @1138
    _ZN14Fl_Round_Clock13inherits_fromEPKc @1139
    _ZN14Fl_Round_Clock15cheap_rtti_infoEv @1140
    _ZN14Fl_Round_Clock7classIdEv @1141
    _ZN14Fl_Round_Clock9classNameEv @1142
    _ZN14Fl_Round_ClockC1EiiiiPKc @1143
    _ZN14Fl_Round_ClockD0Ev @1144
    _ZN14Fl_Round_ClockD1Ev @1145
    _ZN14Fl_Text_Buffer10appendfileEPKci @1146
    _ZN14Fl_Text_Buffer10insertfileEPKcii @1147
    _ZN14Fl_Text_Buffer10outputfileEPKciii @1148
    _ZN14Fl_Text_Buffer10skip_linesEii @1149
    _ZN14Fl_Text_Buffer11unhighlightEv @1150
    _ZN14Fl_Text_Buffer12rewind_linesEii @1151
    _ZN14Fl_Text_Buffer12tab_distanceEi @1152
    _ZN14Fl_Text_Buffer13insert_columnEiiPKcPiS2_ @1153
    _ZN14Fl_Text_Buffer14highlight_textEv @1154
    _ZN14Fl_Text_Buffer14insert_column_EiiPKcPiS2_S2_ @1155
    _ZN14Fl_Text_Buffer14selection_textEv @1156
    _ZN14Fl_Text_Buffer15character_widthEPKcii @1157
    _ZN14Fl_Text_Buffer15character_widthEcii @1158
    _ZN14Fl_Text_Buffer16expand_characterEPKciPci @1159
    _ZN14Fl_Text_Buffer16remove_selectionEv @1160
    _ZN14Fl_Text_Buffer16secondary_selectEii @1161
    _ZN14Fl_Text_Buffer17clear_rectangularEiiii @1162
    _ZN14Fl_Text_Buffer17primary_selectionEv @1163
    _ZN14Fl_Text_Buffer17remove_selection_EP17Fl_Text_Selection @1164
    _ZN14Fl_Text_Buffer17replace_selectionEPKc @1165
    _ZN14Fl_Text_Buffer17update_selectionsEiii @1166
    _ZN14Fl_Text_Buffer18highlight_positionEPiS0_ @1167
    _ZN14Fl_Text_Buffer18highlight_positionEPiS0_S0_S0_S0_ @1168
    _ZN14Fl_Text_Buffer18remove_rectangularEiiii @1169
    _ZN14Fl_Text_Buffer18replace_selection_EP17Fl_Text_SelectionPKc @1170
    _ZN14Fl_Text_Buffer18secondary_selectedEv @1171
    _ZN14Fl_Text_Buffer18secondary_unselectEv @1172
    _ZN14Fl_Text_Buffer18select_rectangularEiiii @1173
    _ZN14Fl_Text_Buffer18selection_positionEPiS0_ @1174
    _ZN14Fl_Text_Buffer18selection_positionEPiS0_S0_S0_S0_ @1175
    _ZN14Fl_Text_Buffer19add_modify_callbackEPFviiiiPKcPvES2_ @1176
    _ZN14Fl_Text_Buffer19overlay_rectangularEiiiPKcPiS2_ @1177
    _ZN14Fl_Text_Buffer19reallocate_with_gapEii @1178
    _ZN14Fl_Text_Buffer19remove_rectangular_EiiiiPiS0_ @1179
    _ZN14Fl_Text_Buffer19replace_rectangularEiiiiPKc @1180
    _ZN14Fl_Text_Buffer20overlay_rectangular_EiiiPKcPiS2_S2_ @1181
    _ZN14Fl_Text_Buffer21call_modify_callbacksEv @1182
    _ZN14Fl_Text_Buffer21highlight_rectangularEiiii @1183
    _ZN14Fl_Text_Buffer22add_predelete_callbackEPFviiPvES0_ @1184
    _ZN14Fl_Text_Buffer22remove_modify_callbackEPFviiiiPKcPvES2_ @1185
    _ZN14Fl_Text_Buffer24call_predelete_callbacksEv @1186
    _ZN14Fl_Text_Buffer24secondary_selection_textEv @1187
    _ZN14Fl_Text_Buffer25remove_predelete_callbackEPFviiPvES0_ @1188
    _ZN14Fl_Text_Buffer25skip_displayed_charactersEii @1189
    _ZN14Fl_Text_Buffer26remove_secondary_selectionEv @1190
    _ZN14Fl_Text_Buffer27replace_secondary_selectionEPKc @1191
    _ZN14Fl_Text_Buffer28secondary_select_rectangularEiiii @1192
    _ZN14Fl_Text_Buffer28secondary_selection_positionEPiS0_ @1193
    _ZN14Fl_Text_Buffer28secondary_selection_positionEPiS0_S0_S0_S0_ @1194
    _ZN14Fl_Text_Buffer4copyEPS_iii @1195
    _ZN14Fl_Text_Buffer4textEPKc @1196
    _ZN14Fl_Text_Buffer4undoEPi @1197
    _ZN14Fl_Text_Buffer6appendEPKc @1198
    _ZN14Fl_Text_Buffer6insertEiPKc @1199
    _ZN14Fl_Text_Buffer6removeEii @1200
    _ZN14Fl_Text_Buffer6selectEii @1201
    _ZN14Fl_Text_Buffer7addressEi @1202
    _ZN14Fl_Text_Buffer7canUndoEc @1203
    _ZN14Fl_Text_Buffer7insert_EiPKc @1204
    _ZN14Fl_Text_Buffer7remove_Eii @1205
    _ZN14Fl_Text_Buffer7replaceEiiPKc @1206
    _ZN14Fl_Text_Buffer8loadfileEPKci @1207
    _ZN14Fl_Text_Buffer8move_gapEi @1208
    _ZN14Fl_Text_Buffer8savefileEPKci @1209
    _ZN14Fl_Text_Buffer8unselectEv @1210
    _ZN14Fl_Text_Buffer9highlightEii @1211
    _ZN14Fl_Text_Buffer9highlightEv @1212
    _ZN14Fl_Text_BufferC1Eii @1213
    _ZN14Fl_Text_BufferC2Eii @1214
    _ZN14Fl_Text_BufferD1Ev @1215
    _ZN14Fl_Text_BufferD2Ev @1216
    _ZN14Fl_Text_Editor10handle_keyEv @1217
    _ZN14Fl_Text_Editor10kf_defaultEiPS_ @1218
    _ZN14Fl_Text_Editor10kf_page_upEiPS_ @1219
    _ZN14Fl_Text_Editor11insert_modeEi @1220
    _ZN14Fl_Text_Editor11insert_modeEv @1221
    _ZN14Fl_Text_Editor11kf_c_s_moveEiPS_ @1222
    _ZN14Fl_Text_Editor11kf_m_s_moveEiPS_ @1223
    _ZN14Fl_Text_Editor12kf_backspaceEiPS_ @1224
    _ZN14Fl_Text_Editor12kf_ctrl_moveEiPS_ @1225
    _ZN14Fl_Text_Editor12kf_meta_moveEiPS_ @1226
    _ZN14Fl_Text_Editor12kf_page_downEiPS_ @1227
    _ZN14Fl_Text_Editor13inherits_fromEPKc @1228
    _ZN14Fl_Text_Editor13kf_select_allEiPS_ @1229
    _ZN14Fl_Text_Editor13kf_shift_moveEiPS_ @1230
    _ZN14Fl_Text_Editor15add_key_bindingEiiPFiiPS_EPPNS_11Key_BindingE @1231
    _ZN14Fl_Text_Editor15cheap_rtti_infoEv @1232
    _ZN14Fl_Text_Editor17maybe_do_callbackEv @1233
    _ZN14Fl_Text_Editor18bound_key_functionEiiPNS_11Key_BindingE @1234
    _ZN14Fl_Text_Editor18remove_key_bindingEii @1235
    _ZN14Fl_Text_Editor18remove_key_bindingEiiPPNS_11Key_BindingE @1236
    _ZN14Fl_Text_Editor19global_key_bindingsE @1237 DATA
    _ZN14Fl_Text_Editor23remove_all_key_bindingsEPPNS_11Key_BindingE @1238
    _ZN14Fl_Text_Editor23remove_all_key_bindingsEv @1239
    _ZN14Fl_Text_Editor24add_default_key_bindingsEPPNS_11Key_BindingE @1240
    _ZN14Fl_Text_Editor5kf_upEiPS_ @1241
    _ZN14Fl_Text_Editor6handleEi @1242
    _ZN14Fl_Text_Editor6kf_cutEiPS_ @1243
    _ZN14Fl_Text_Editor6kf_endEiPS_ @1244
    _ZN14Fl_Text_Editor7classIdEv @1245
    _ZN14Fl_Text_Editor7kf_copyEiPS_ @1246
    _ZN14Fl_Text_Editor7kf_downEiPS_ @1247
    _ZN14Fl_Text_Editor7kf_homeEiPS_ @1248
    _ZN14Fl_Text_Editor7kf_leftEiPS_ @1249
    _ZN14Fl_Text_Editor7kf_moveEiPS_ @1250
    _ZN14Fl_Text_Editor7kf_undoEiPS_ @1251
    _ZN14Fl_Text_Editor8kf_enterEiPS_ @1252
    _ZN14Fl_Text_Editor8kf_pasteEiPS_ @1253
    _ZN14Fl_Text_Editor8kf_rightEiPS_ @1254
    _ZN14Fl_Text_Editor9kf_deleteEiPS_ @1255
    _ZN14Fl_Text_Editor9kf_ignoreEiPS_ @1256
    _ZN14Fl_Text_Editor9kf_insertEiPS_ @1257
    _ZN14Fl_Text_EditorC1EiiiiPKc @1258
    _ZN14Fl_Text_EditorC2EiiiiPKc @1259
    _ZN14Fl_Text_EditorD0Ev @1260
    _ZN14Fl_Text_EditorD1Ev @1261
    _ZN14Fl_Tiled_Image10desaturateEv @1262
    _ZN14Fl_Tiled_Image13color_averageEjf @1263
    _ZN14Fl_Tiled_Image13inherits_fromEPKc @1264
    _ZN14Fl_Tiled_Image15cheap_rtti_infoEv @1265
    _ZN14Fl_Tiled_Image4copyEii @1266
    _ZN14Fl_Tiled_Image4copyEv @1267
    _ZN14Fl_Tiled_Image4drawEii @1268
    _ZN14Fl_Tiled_Image4drawEiiiiii @1269
    _ZN14Fl_Tiled_Image5imageEv @1270
    _ZN14Fl_Tiled_Image7classIdEv @1271
    _ZN14Fl_Tiled_ImageC1EP8Fl_Imageii @1272
    _ZN14Fl_Tiled_ImageC2EP8Fl_Imageii @1273
    _ZN14Fl_Tiled_ImageD0Ev @1274
    _ZN14Fl_Tiled_ImageD1Ev @1275
    _ZN14Fl_Tiled_ImageD2Ev @1276
    _ZN14Fl_Value_Input12cursor_colorEj @1277
    _ZN14Fl_Value_Input12value_damageEv @1278
    _ZN14Fl_Value_Input13inherits_fromEPKc @1279
    _ZN14Fl_Value_Input15cheap_rtti_infoEv @1280
    _ZN14Fl_Value_Input4drawEv @1281
    _ZN14Fl_Value_Input4softEc @1282
    _ZN14Fl_Value_Input6handleEi @1283
    _ZN14Fl_Value_Input6resizeEiiii @1284
    _ZN14Fl_Value_Input7classIdEv @1285
    _ZN14Fl_Value_Input8input_cbEP9Fl_WidgetPv @1286
    _ZN14Fl_Value_Input8shortcutEi @1287
    _ZN14Fl_Value_Input8textfontEi @1288
    _ZN14Fl_Value_Input8textsizeEi @1289
    _ZN14Fl_Value_Input9textcolorEj @1290
    _ZN14Fl_Value_InputC1EiiiiPKc @1291
    _ZN14Fl_Value_InputC2EiiiiPKc @1292
    _ZN14Fl_Value_InputD0Ev @1293
    _ZN14Fl_Value_InputD1Ev @1294
    _ZN14Fl_Value_InputD2Ev @1295
    _ZN14Flv_Style_List13clear_currentEv @1296
    _ZN14Flv_Style_List15release_currentEv @1297
    _ZN14Flv_Style_List4findEi @1298
    _ZN14Flv_Style_List4nextEv @1299
    _ZN14Flv_Style_List5clearEv @1300
    _ZN14Flv_Style_List5countEv @1301
    _ZN14Flv_Style_List5firstEv @1302
    _ZN14Flv_Style_List5priorEv @1303
    _ZN14Flv_Style_List6insertEP9Flv_Style @1304
    _ZN14Flv_Style_List7compactEv @1305
    _ZN14Flv_Style_List7currentEv @1306
    _ZN14Flv_Style_List7releaseEv @1307
    _ZN14Flv_Style_List7skip_toEi @1308
    _ZN14Flv_Style_ListC1Ev @1309
    _ZN14Flv_Style_ListC2Ev @1310
    _ZN14Flv_Style_ListixEi @1311
    _ZN15Fl_Check_Button13inherits_fromEPKc @1312
    _ZN15Fl_Check_Button15cheap_rtti_infoEv @1313
    _ZN15Fl_Check_Button7classIdEv @1314
    _ZN15Fl_Check_ButtonC1EiiiiPKc @1315
    _ZN15Fl_Check_ButtonC2EiiiiPKc @1316
    _ZN15Fl_Check_ButtonD0Ev @1317
    _ZN15Fl_Check_ButtonD1Ev @1318
    _ZN15Fl_Clock_Output13inherits_fromEPKc @1319
    _ZN15Fl_Clock_Output15cheap_rtti_infoEv @1320
    _ZN15Fl_Clock_Output4drawEiiii @1321
    _ZN15Fl_Clock_Output4drawEv @1322
    _ZN15Fl_Clock_Output5valueEiii @1323
    _ZN15Fl_Clock_Output5valueEm @1324
    _ZN15Fl_Clock_Output7classIdEv @1325
    _ZN15Fl_Clock_Output9drawhandsEjj @1326
    _ZN15Fl_Clock_OutputC1EiiiiPKc @1327
    _ZN15Fl_Clock_OutputC2EiiiiPKc @1328
    _ZN15Fl_Clock_OutputD0Ev @1329
    _ZN15Fl_Clock_OutputD1Ev @1330
    _ZN15Fl_File_Browser13inherits_fromEPKc @1331
    _ZN15Fl_File_Browser15cheap_rtti_infoEv @1332
    _ZN15Fl_File_Browser4loadEPKcPFiPP6direntS4_E @1333
    _ZN15Fl_File_Browser6filterEPKc @1334
    _ZN15Fl_File_Browser7classIdEv @1335
    _ZN15Fl_File_Browser8filetypeEi @1336
    _ZN15Fl_File_Browser8iconsizeEh @1337
    _ZN15Fl_File_Browser8textsizeEi @1338
    _ZN15Fl_File_BrowserC1EiiiiPKc @1339
    _ZN15Fl_File_BrowserC2EiiiiPKc @1340
    _ZN15Fl_File_BrowserD0Ev @1341
    _ZN15Fl_File_BrowserD1Ev @1342
    _ZN15Fl_File_Chooser10cb_favListEP15Fl_File_BrowserPv @1343
    _ZN15Fl_File_Chooser10fileListCBEv @1344
    _ZN15Fl_File_Chooser10fileNameCBEv @1345
    _ZN15Fl_File_Chooser10save_labelE @1346 DATA
    _ZN15Fl_File_Chooser10show_labelE @1347 DATA
    _ZN15Fl_File_Chooser11cb_fileListEP15Fl_File_BrowserPv @1348
    _ZN15Fl_File_Chooser11cb_fileNameEP13Fl_File_InputPv @1349
    _ZN15Fl_File_Chooser11cb_okButtonEP16Fl_Return_ButtonPv @1350
    _ZN15Fl_File_Chooser11cb_window_iEP16Fl_Double_WindowPv @1351
    _ZN15Fl_File_Chooser11favoritesCBEP9Fl_Widget @1352
    _ZN15Fl_File_Chooser12cb_favList_iEP15Fl_File_BrowserPv @1353
    _ZN15Fl_File_Chooser12cb_newButtonEP9Fl_ButtonPv @1354
    _ZN15Fl_File_Chooser12filter_valueEi @1355
    _ZN15Fl_File_Chooser12filter_valueEv @1356
    _ZN15Fl_File_Chooser12showChoiceCBEv @1357
    _ZN15Fl_File_Chooser13cb_fileList_iEP15Fl_File_BrowserPv @1358
    _ZN15Fl_File_Chooser13cb_fileName_iEP13Fl_File_InputPv @1359
    _ZN15Fl_File_Chooser13cb_okButton_iEP16Fl_Return_ButtonPv @1360
    _ZN15Fl_File_Chooser13cb_showChoiceEP9Fl_ChoicePv @1361
    _ZN15Fl_File_Chooser13preview_labelE @1362 DATA
    _ZN15Fl_File_Chooser14cb_favOkButtonEP16Fl_Return_ButtonPv @1363
    _ZN15Fl_File_Chooser14cb_favUpButtonEP9Fl_ButtonPv @1364
    _ZN15Fl_File_Chooser14cb_newButton_iEP9Fl_ButtonPv @1365
    _ZN15Fl_File_Chooser14filename_labelE @1366 DATA
    _ZN15Fl_File_Chooser14update_previewEv @1367
    _ZN15Fl_File_Chooser15all_files_labelE @1368 DATA
    _ZN15Fl_File_Chooser15cb_cancelButtonEP9Fl_ButtonPv @1369
    _ZN15Fl_File_Chooser15cb_showChoice_iEP9Fl_ChoicePv @1370
    _ZN15Fl_File_Chooser15favorites_labelE @1371 DATA
    _ZN15Fl_File_Chooser16cb_favDownButtonEP9Fl_ButtonPv @1372
    _ZN15Fl_File_Chooser16cb_favOkButton_iEP16Fl_Return_ButtonPv @1373
    _ZN15Fl_File_Chooser16cb_favUpButton_iEP9Fl_ButtonPv @1374
    _ZN15Fl_File_Chooser16cb_previewButtonEP15Fl_Check_ButtonPv @1375
    _ZN15Fl_File_Chooser16update_favoritesEv @1376
    _ZN15Fl_File_Chooser17cb_cancelButton_iEP9Fl_ButtonPv @1377
    _ZN15Fl_File_Chooser17favoritesButtonCBEv @1378
    _ZN15Fl_File_Chooser17filesystems_labelE @1379 DATA
    _ZN15Fl_File_Chooser18cb_favCancelButtonEP9Fl_ButtonPv @1380
    _ZN15Fl_File_Chooser18cb_favDeleteButtonEP9Fl_ButtonPv @1381
    _ZN15Fl_File_Chooser18cb_favDownButton_iEP9Fl_ButtonPv @1382
    _ZN15Fl_File_Chooser18cb_favoritesButtonEP14Fl_Menu_ButtonPv @1383
    _ZN15Fl_File_Chooser18cb_previewButton_iEP15Fl_Check_ButtonPv @1384
    _ZN15Fl_File_Chooser19add_favorites_labelE @1385 DATA
    _ZN15Fl_File_Chooser19custom_filter_labelE @1386 DATA
    _ZN15Fl_File_Chooser19existing_file_labelE @1387 DATA
    _ZN15Fl_File_Chooser19new_directory_labelE @1388 DATA
    _ZN15Fl_File_Chooser20cb_favCancelButton_iEP9Fl_ButtonPv @1389
    _ZN15Fl_File_Chooser20cb_favDeleteButton_iEP9Fl_ButtonPv @1390
    _ZN15Fl_File_Chooser20cb_favoritesButton_iEP14Fl_Menu_ButtonPv @1391
    _ZN15Fl_File_Chooser20rescan_keep_filenameEv @1392
    _ZN15Fl_File_Chooser21new_directory_tooltipE @1393 DATA
    _ZN15Fl_File_Chooser22manage_favorites_labelE @1394 DATA
    _ZN15Fl_File_Chooser3cb_EP7Fl_TilePv @1395
    _ZN15Fl_File_Chooser4hideEv @1396
    _ZN15Fl_File_Chooser4showEv @1397
    _ZN15Fl_File_Chooser4sortE @1398 DATA
    _ZN15Fl_File_Chooser4typeEi @1399
    _ZN15Fl_File_Chooser4typeEv @1400
    _ZN15Fl_File_Chooser5cb__iEP7Fl_TilePv @1401
    _ZN15Fl_File_Chooser5colorEj @1402
    _ZN15Fl_File_Chooser5colorEv @1403
    _ZN15Fl_File_Chooser5countEv @1404
    _ZN15Fl_File_Chooser5labelEPKc @1405
    _ZN15Fl_File_Chooser5labelEv @1406
    _ZN15Fl_File_Chooser5shownEv @1407
    _ZN15Fl_File_Chooser5valueEPKc @1408
    _ZN15Fl_File_Chooser5valueEi @1409
    _ZN15Fl_File_Chooser6filterEPKc @1410
    _ZN15Fl_File_Chooser6filterEv @1411
    _ZN15Fl_File_Chooser6newdirEv @1412
    _ZN15Fl_File_Chooser6prefs_E @1413 DATA
    _ZN15Fl_File_Chooser6rescanEv @1414
    _ZN15Fl_File_Chooser7browserEv @1415
    _ZN15Fl_File_Chooser7previewEi @1416
    _ZN15Fl_File_Chooser7visibleEv @1417
    _ZN15Fl_File_Chooser8callbackEPFvPS_PvES1_ @1418
    _ZN15Fl_File_Chooser8iconsizeEh @1419
    _ZN15Fl_File_Chooser8iconsizeEv @1420
    _ZN15Fl_File_Chooser8ok_labelEPKc @1421
    _ZN15Fl_File_Chooser8ok_labelEv @1422
    _ZN15Fl_File_Chooser8textfontEi @1423
    _ZN15Fl_File_Chooser8textfontEv @1424
    _ZN15Fl_File_Chooser8textsizeEi @1425
    _ZN15Fl_File_Chooser8textsizeEv @1426
    _ZN15Fl_File_Chooser9add_extraEP9Fl_Widget @1427
    _ZN15Fl_File_Chooser9cb_windowEP16Fl_Double_WindowPv @1428
    _ZN15Fl_File_Chooser9directoryEPKc @1429
    _ZN15Fl_File_Chooser9directoryEv @1430
    _ZN15Fl_File_Chooser9previewCBEPS_ @1431
    _ZN15Fl_File_Chooser9textcolorEj @1432
    _ZN15Fl_File_Chooser9textcolorEv @1433
    _ZN15Fl_File_Chooser9user_dataEPv @1434
    _ZN15Fl_File_ChooserC1EPKcS1_iS1_ @1435
    _ZN15Fl_File_ChooserC2EPKcS1_iS1_ @1436
    _ZN15Fl_File_ChooserD1Ev @1437
    _ZN15Fl_File_ChooserD2Ev @1438
    _ZN15Fl_Hold_Browser13inherits_fromEPKc @1439
    _ZN15Fl_Hold_Browser15cheap_rtti_infoEv @1440
    _ZN15Fl_Hold_Browser7classIdEv @1441
    _ZN15Fl_Hold_Browser9classNameEv @1442
    _ZN15Fl_Hold_BrowserC1EiiiiPKc @1443
    _ZN15Fl_Hold_BrowserD0Ev @1444
    _ZN15Fl_Hold_BrowserD1Ev @1445
    _ZN15Fl_Input_Choice10menubuttonEv @1446
    _ZN15Fl_Input_Choice11set_changedEv @1447
    _ZN15Fl_Input_Choice13clear_changedEv @1448
    _ZN15Fl_Input_Choice13inherits_fromEPKc @1449
    _ZN15Fl_Input_Choice15InputMenuButton4drawEv @1450
    _ZN15Fl_Input_Choice15InputMenuButtonC1EiiiiPKc @1451
    _ZN15Fl_Input_Choice15InputMenuButtonD0Ev @1452
    _ZN15Fl_Input_Choice15InputMenuButtonD1Ev @1453
    _ZN15Fl_Input_Choice15cheap_rtti_infoEv @1454
    _ZN15Fl_Input_Choice3addEPKc @1455
    _ZN15Fl_Input_Choice4menuEPK12Fl_Menu_Item @1456
    _ZN15Fl_Input_Choice4menuEv @1457
    _ZN15Fl_Input_Choice5clearEv @1458
    _ZN15Fl_Input_Choice5inp_hEv @1459
    _ZN15Fl_Input_Choice5inp_wEv @1460
    _ZN15Fl_Input_Choice5inp_xEv @1461
    _ZN15Fl_Input_Choice5inp_yEv @1462
    _ZN15Fl_Input_Choice5inputEv @1463
    _ZN15Fl_Input_Choice5valueEPKc @1464
    _ZN15Fl_Input_Choice6inp_cbEP9Fl_WidgetPv @1465
    _ZN15Fl_Input_Choice6menu_hEv @1466
    _ZN15Fl_Input_Choice6menu_wEv @1467
    _ZN15Fl_Input_Choice6menu_xEv @1468
    _ZN15Fl_Input_Choice6menu_yEv @1469
    _ZN15Fl_Input_Choice6resizeEiiii @1470
    _ZN15Fl_Input_Choice7classIdEv @1471
    _ZN15Fl_Input_Choice7menu_cbEP9Fl_WidgetPv @1472
    _ZN15Fl_Input_Choice8down_boxE10Fl_Boxtype @1473
    _ZN15Fl_Input_Choice8textfontEi @1474
    _ZN15Fl_Input_Choice8textsizeEi @1475
    _ZN15Fl_Input_Choice9classNameEv @1476
    _ZN15Fl_Input_Choice9textcolorEj @1477
    _ZN15Fl_Input_ChoiceC1EiiiiPKc @1478
    _ZN15Fl_Input_ChoiceD0Ev @1479
    _ZN15Fl_Input_ChoiceD1Ev @1480
    _ZN15Fl_Light_Button13inherits_fromEPKc @1481
    _ZN15Fl_Light_Button15cheap_rtti_infoEv @1482
    _ZN15Fl_Light_Button4drawEv @1483
    _ZN15Fl_Light_Button6handleEi @1484
    _ZN15Fl_Light_Button7classIdEv @1485
    _ZN15Fl_Light_ButtonC1EiiiiPKc @1486
    _ZN15Fl_Light_ButtonC2EiiiiPKc @1487
    _ZN15Fl_Light_ButtonD0Ev @1488
    _ZN15Fl_Light_ButtonD1Ev @1489
    _ZN15Fl_Light_ButtonD2Ev @1490
    _ZN15Fl_Radio_Button13inherits_fromEPKc @1491
    _ZN15Fl_Radio_Button15cheap_rtti_infoEv @1492
    _ZN15Fl_Radio_Button7classIdEv @1493
    _ZN15Fl_Radio_Button9classNameEv @1494
    _ZN15Fl_Radio_ButtonC1EiiiiPKc @1495
    _ZN15Fl_Radio_ButtonD0Ev @1496
    _ZN15Fl_Radio_ButtonD1Ev @1497
    _ZN15Fl_Round_Button13inherits_fromEPKc @1498
    _ZN15Fl_Round_Button15cheap_rtti_infoEv @1499
    _ZN15Fl_Round_Button7classIdEv @1500
    _ZN15Fl_Round_Button9classNameEv @1501
    _ZN15Fl_Round_ButtonC1EiiiiPKc @1502
    _ZN15Fl_Round_ButtonC2EiiiiPKc @1503
    _ZN15Fl_Round_ButtonD0Ev @1504
    _ZN15Fl_Round_ButtonD1Ev @1505
    _ZN15Fl_Round_ButtonD2Ev @1506
    _ZN15Fl_Secret_Input13inherits_fromEPKc @1507
    _ZN15Fl_Secret_Input15cheap_rtti_infoEv @1508
    _ZN15Fl_Secret_Input7classIdEv @1509
    _ZN15Fl_Secret_Input9classNameEv @1510
    _ZN15Fl_Secret_InputC1EiiiiPKc @1511
    _ZN15Fl_Secret_InputD0Ev @1512
    _ZN15Fl_Secret_InputD1Ev @1513
    _ZN15Fl_Shared_Image10desaturateEv @1514
    _ZN15Fl_Shared_Image10num_imagesEv @1515
    _ZN15Fl_Shared_Image11add_handlerEPFP8Fl_ImagePKcPhiE @1516
    _ZN15Fl_Shared_Image11num_images_E @1517 DATA
    _ZN15Fl_Shared_Image13alloc_images_E @1518 DATA
    _ZN15Fl_Shared_Image13color_averageEjf @1519
    _ZN15Fl_Shared_Image13inherits_fromEPKc @1520
    _ZN15Fl_Shared_Image13num_handlers_E @1521 DATA
    _ZN15Fl_Shared_Image14remove_handlerEPFP8Fl_ImagePKcPhiE @1522
    _ZN15Fl_Shared_Image15alloc_handlers_E @1523 DATA
    _ZN15Fl_Shared_Image15cheap_rtti_infoEv @1524
    _ZN15Fl_Shared_Image3addEv @1525
    _ZN15Fl_Shared_Image3getEPKcii @1526
    _ZN15Fl_Shared_Image4copyEii @1527
    _ZN15Fl_Shared_Image4copyEv @1528
    _ZN15Fl_Shared_Image4drawEii @1529
    _ZN15Fl_Shared_Image4drawEiiiiii @1530
    _ZN15Fl_Shared_Image4findEPKcii @1531
    _ZN15Fl_Shared_Image4nameEv @1532
    _ZN15Fl_Shared_Image6imagesEv @1533
    _ZN15Fl_Shared_Image6reloadEv @1534
    _ZN15Fl_Shared_Image6updateEv @1535
    _ZN15Fl_Shared_Image7classIdEv @1536
    _ZN15Fl_Shared_Image7compareEPPS_S1_ @1537
    _ZN15Fl_Shared_Image7images_E @1538 DATA
    _ZN15Fl_Shared_Image7releaseEv @1539
    _ZN15Fl_Shared_Image7uncacheEv @1540
    _ZN15Fl_Shared_Image8refcountEv @1541
    _ZN15Fl_Shared_Image9handlers_E @1542 DATA
    _ZN15Fl_Shared_ImageC1EPKcP8Fl_Image @1543
    _ZN15Fl_Shared_ImageC1Ev @1544
    _ZN15Fl_Shared_ImageC2EPKcP8Fl_Image @1545
    _ZN15Fl_Shared_ImageC2Ev @1546
    _ZN15Fl_Shared_ImageD0Ev @1547
    _ZN15Fl_Shared_ImageD1Ev @1548
    _ZN15Fl_Shared_ImageD2Ev @1549
    _ZN15Fl_Text_Display10clear_rectEiiiii @1550
    _ZN15Fl_Text_Display10draw_rangeEii @1551
    _ZN15Fl_Text_Display10draw_vlineEiiiii @1552
    _ZN15Fl_Text_Display10move_rightEv @1553
    _ZN15Fl_Text_Display10overstrikeEPKc @1554
    _ZN15Fl_Text_Display10skip_linesEiib @1555
    _ZN15Fl_Text_Display11draw_cursorEii @1556
    _ZN15Fl_Text_Display11draw_stringEiiiiPKci @1557
    _ZN15Fl_Text_Display11hide_cursorEv @1558
    _ZN15Fl_Text_Display11show_cursorEi @1559
    _ZN15Fl_Text_Display12cursor_colorEj @1560
    _ZN15Fl_Text_Display12cursor_styleEi @1561
    _ZN15Fl_Text_Display12rewind_linesEii @1562
    _ZN15Fl_Text_Display13inherits_fromEPKc @1563
    _ZN15Fl_Text_Display13previous_wordEv @1564
    _ZN15Fl_Text_Display14calc_last_charEv @1565
    _ZN15Fl_Text_Display14display_insertEv @1566
    _ZN15Fl_Text_Display14h_scrollbar_cbEP12Fl_ScrollbarPS_ @1567
    _ZN15Fl_Text_Display14highlight_dataEP14Fl_Text_BufferPKNS_17Style_Table_EntryEicPFviPvES5_ @1568
    _ZN15Fl_Text_Display14v_scrollbar_cbEP12Fl_ScrollbarPS_ @1569
    _ZN15Fl_Text_Display15cheap_rtti_infoEv @1570
    _ZN15Fl_Text_Display15find_wrap_rangeEPKciiiPiS2_S2_S2_ @1571
    _ZN15Fl_Text_Display15insert_positionEi @1572
    _ZN15Fl_Text_Display15redisplay_rangeEii @1573
    _ZN15Fl_Text_Display15scroll_timer_cbEPv @1574
    _ZN15Fl_Text_Display15scrollbar_alignEj @1575
    _ZN15Fl_Text_Display15scrollbar_widthEi @1576
    _ZN15Fl_Text_Display16calc_line_startsEii @1577
    _ZN15Fl_Text_Display17draw_line_numbersEb @1578
    _ZN15Fl_Text_Display18buffer_modified_cbEiiiiPKcPv @1579
    _ZN15Fl_Text_Display18offset_line_startsEi @1580
    _ZN15Fl_Text_Display18update_h_scrollbarEv @1581
    _ZN15Fl_Text_Display18update_line_startsEiiiiiPi @1582
    _ZN15Fl_Text_Display18update_v_scrollbarEv @1583
    _ZN15Fl_Text_Display19buffer_predelete_cbEiiPv @1584
    _ZN15Fl_Text_Display20show_insert_positionEv @1585
    _ZN15Fl_Text_Display21measure_deleted_linesEii @1586
    _ZN15Fl_Text_Display23extend_range_for_stylesEPiS0_ @1587
    _ZN15Fl_Text_Display24absolute_top_line_numberEi @1588
    _ZN15Fl_Text_Display30reset_absolute_top_line_numberEv @1589
    _ZN15Fl_Text_Display33maintain_absolute_top_line_numberEi @1590
    _ZN15Fl_Text_Display4drawEv @1591
    _ZN15Fl_Text_Display6bufferEP14Fl_Text_Buffer @1592
    _ZN15Fl_Text_Display6handleEi @1593
    _ZN15Fl_Text_Display6insertEPKc @1594
    _ZN15Fl_Text_Display6resizeEiiii @1595
    _ZN15Fl_Text_Display6scrollEii @1596
    _ZN15Fl_Text_Display7classIdEv @1597
    _ZN15Fl_Text_Display7move_upEv @1598
    _ZN15Fl_Text_Display7scroll_Eii @1599
    _ZN15Fl_Text_Display8shortcutEi @1600
    _ZN15Fl_Text_Display8textfontEi @1601
    _ZN15Fl_Text_Display8textsizeEi @1602
    _ZN15Fl_Text_Display9draw_textEiiii @1603
    _ZN15Fl_Text_Display9move_downEv @1604
    _ZN15Fl_Text_Display9move_leftEv @1605
    _ZN15Fl_Text_Display9next_wordEv @1606
    _ZN15Fl_Text_Display9textcolorEj @1607
    _ZN15Fl_Text_Display9wrap_modeEii @1608
    _ZN15Fl_Text_DisplayC1EiiiiPKc @1609
    _ZN15Fl_Text_DisplayC2EiiiiPKc @1610
    _ZN15Fl_Text_DisplayD0Ev @1611
    _ZN15Fl_Text_DisplayD1Ev @1612
    _ZN15Fl_Text_DisplayD2Ev @1613
    _ZN15Fl_Value_Output13inherits_fromEPKc @1614
    _ZN15Fl_Value_Output15cheap_rtti_infoEv @1615
    _ZN15Fl_Value_Output4drawEv @1616
    _ZN15Fl_Value_Output4softEh @1617
    _ZN15Fl_Value_Output6handleEi @1618
    _ZN15Fl_Value_Output7classIdEv @1619
    _ZN15Fl_Value_Output8textfontEi @1620
    _ZN15Fl_Value_Output8textsizeEi @1621
    _ZN15Fl_Value_Output9textcolorEj @1622
    _ZN15Fl_Value_OutputC1EiiiiPKc @1623
    _ZN15Fl_Value_OutputC2EiiiiPKc @1624
    _ZN15Fl_Value_OutputD0Ev @1625
    _ZN15Fl_Value_OutputD1Ev @1626
    _ZN15Fl_Value_Slider13inherits_fromEPKc @1627
    _ZN15Fl_Value_Slider15cheap_rtti_infoEv @1628
    _ZN15Fl_Value_Slider4drawEv @1629
    _ZN15Fl_Value_Slider6handleEi @1630
    _ZN15Fl_Value_Slider7classIdEv @1631
    _ZN15Fl_Value_Slider8textfontEi @1632
    _ZN15Fl_Value_Slider8textsizeEi @1633
    _ZN15Fl_Value_Slider9textcolorEj @1634
    _ZN15Fl_Value_SliderC1EiiiiPKc @1635
    _ZN15Fl_Value_SliderC2EiiiiPKc @1636
    _ZN15Fl_Value_SliderD0Ev @1637
    _ZN15Fl_Value_SliderD1Ev @1638
    _ZN15Fl_Value_SliderD2Ev @1639
    _ZN16Fl_Check_Browser10check_noneEv @1640
    _ZN16Fl_Check_Browser11item_selectEPvi @1641
    _ZN16Fl_Check_Browser11set_checkedEi @1642
    _ZN16Fl_Check_Browser13inherits_fromEPKc @1643
    _ZN16Fl_Check_Browser15cheap_rtti_infoEv @1644
    _ZN16Fl_Check_Browser3addEPc @1645
    _ZN16Fl_Check_Browser3addEPci @1646
    _ZN16Fl_Check_Browser5clearEv @1647
    _ZN16Fl_Check_Browser6handleEi @1648
    _ZN16Fl_Check_Browser6removeEi @1649
    _ZN16Fl_Check_Browser7checkedEii @1650
    _ZN16Fl_Check_Browser7classIdEv @1651
    _ZN16Fl_Check_Browser9check_allEv @1652
    _ZN16Fl_Check_BrowserC1EiiiiPKc @1653
    _ZN16Fl_Check_BrowserC2EiiiiPKc @1654
    _ZN16Fl_Check_BrowserD0Ev @1655
    _ZN16Fl_Check_BrowserD1Ev @1656
    _ZN16Fl_Color_Chooser13inherits_fromEPKc @1657
    _ZN16Fl_Color_Chooser13set_valuatorsEv @1658
    _ZN16Fl_Color_Chooser15cheap_rtti_infoEv @1659
    _ZN16Fl_Color_Chooser3hsvEddd @1660
    _ZN16Fl_Color_Chooser3rgbEddd @1661
    _ZN16Fl_Color_Chooser4modeEv @1662
    _ZN16Fl_Color_Chooser6rgb_cbEP9Fl_WidgetPv @1663
    _ZN16Fl_Color_Chooser7classIdEv @1664
    _ZN16Fl_Color_Chooser7hsv2rgbEdddRdS0_S0_ @1665
    _ZN16Fl_Color_Chooser7mode_cbEP9Fl_WidgetPv @1666
    _ZN16Fl_Color_Chooser7rgb2hsvEdddRdS0_S0_ @1667
    _ZN16Fl_Color_ChooserC1EiiiiPKc @1668
    _ZN16Fl_Color_ChooserC2EiiiiPKc @1669
    _ZN16Fl_Color_ChooserD0Ev @1670
    _ZN16Fl_Color_ChooserD1Ev @1671
    _ZN16Fl_Double_Window13inherits_fromEPKc @1672
    _ZN16Fl_Double_Window15cheap_rtti_infoEv @1673
    _ZN16Fl_Double_Window4hideEv @1674
    _ZN16Fl_Double_Window4showEiPPc @1675
    _ZN16Fl_Double_Window4showEv @1676
    _ZN16Fl_Double_Window5flushEi @1677
    _ZN16Fl_Double_Window5flushEv @1678
    _ZN16Fl_Double_Window6resizeEiiii @1679
    _ZN16Fl_Double_Window7classIdEv @1680
    _ZN16Fl_Double_WindowC1EiiPKc @1681
    _ZN16Fl_Double_WindowC1EiiiiPKc @1682
    _ZN16Fl_Double_WindowD0Ev @1683
    _ZN16Fl_Double_WindowD1Ev @1684
    _ZN16Fl_Double_WindowD2Ev @1685
    _ZN16Fl_Multi_Browser13inherits_fromEPKc @1686
    _ZN16Fl_Multi_Browser15cheap_rtti_infoEv @1687
    _ZN16Fl_Multi_Browser7classIdEv @1688
    _ZN16Fl_Multi_Browser9classNameEv @1689
    _ZN16Fl_Multi_BrowserC1EiiiiPKc @1690
    _ZN16Fl_Multi_BrowserD0Ev @1691
    _ZN16Fl_Multi_BrowserD1Ev @1692
    _ZN16Fl_PSfile_Device10alpha_maskEPKhiiii @1693
    _ZN16Fl_PSfile_Device10begin_lineEv @1694
    _ZN16Fl_PSfile_Device10begin_loopEv @1695
    _ZN16Fl_PSfile_Device10draw_imageEPFvPviiiPhES0_iiiii @1696
    _ZN16Fl_PSfile_Device10draw_imageEPKhiiiiii @1697
    _ZN16Fl_PSfile_Device10end_pointsEv @1698
    _ZN16Fl_PSfile_Device10line_styleEiiPc @1699
    _ZN16Fl_PSfile_Device10start_pageEv @1700
    _ZN16Fl_PSfile_Device11end_polygonEv @1701
    _ZN16Fl_PSfile_Device11interpolateEi @1702
    _ZN16Fl_PSfile_Device11interpolateEv @1703
    _ZN16Fl_PSfile_Device11not_clippedEiiii @1704
    _ZN16Fl_PSfile_Device11page_policyEi @1705
    _ZN16Fl_PSfile_Device11page_policyEv @1706
    _ZN16Fl_PSfile_Device11untranslateEv @1707
    _ZN16Fl_PSfile_Device12begin_pointsEv @1708
    _ZN16Fl_PSfile_Device12page_formatsE @1709 DATA
    _ZN16Fl_PSfile_Device12push_no_clipEv @1710
    _ZN16Fl_PSfile_Device13begin_polygonEv @1711
    _ZN16Fl_PSfile_Device14printable_rectEPiS0_ @1712
    _ZN16Fl_PSfile_Device15draw_image_monoEPFvPviiiPhES0_iiiii @1713
    _ZN16Fl_PSfile_Device15draw_image_monoEPKhiiiiii @1714
    _ZN16Fl_PSfile_Device16start_postscriptEiNS_11Page_FormatENS_11Page_LayoutE @1715
    _ZN16Fl_PSfile_Device16transformed_drawEPKcidd @1716
    _ZN16Fl_PSfile_Device17draw_scaled_imageEPFvPviiiPhES0_ddddiii @1717
    _ZN16Fl_PSfile_Device17draw_scaled_imageEPKhddddiiii @1718
    _ZN16Fl_PSfile_Device18file_chooser_titleE @1719 DATA
    _ZN16Fl_PSfile_Device18transformed_vertexEdd @1720
    _ZN16Fl_PSfile_Device19end_complex_polygonEv @1721
    _ZN16Fl_PSfile_Device21begin_complex_polygonEv @1722
    _ZN16Fl_PSfile_Device22draw_scaled_image_monoEPFvPviiiPhES0_ddddiii @1723
    _ZN16Fl_PSfile_Device22draw_scaled_image_monoEPKhddddiiii @1724
    _ZN16Fl_PSfile_Device3arcEddddd @1725
    _ZN16Fl_PSfile_Device3arcEiiiidd @1726
    _ZN16Fl_PSfile_Device3gapEv @1727
    _ZN16Fl_PSfile_Device3pieEiiiidd @1728
    _ZN16Fl_PSfile_Device4drawEP12Fl_RGB_Imageiiiiii @1729
    _ZN16Fl_PSfile_Device4drawEP9Fl_Bitmapiiiiii @1730
    _ZN16Fl_PSfile_Device4drawEP9Fl_Pixmapiiiiii @1731
    _ZN16Fl_PSfile_Device4drawEPKciii @1732
    _ZN16Fl_PSfile_Device4drawEiPKciii @1733
    _ZN16Fl_PSfile_Device4fileEv @1734
    _ZN16Fl_PSfile_Device4fontEii @1735
    _ZN16Fl_PSfile_Device4lineEiiii @1736
    _ZN16Fl_PSfile_Device4lineEiiiiii @1737
    _ZN16Fl_PSfile_Device4loopEiiiiii @1738
    _ZN16Fl_PSfile_Device4loopEiiiiiiii @1739
    _ZN16Fl_PSfile_Device4pageEddi @1740
    _ZN16Fl_PSfile_Device4pageEi @1741
    _ZN16Fl_PSfile_Device4rectEiiii @1742
    _ZN16Fl_PSfile_Device5colorEhhh @1743
    _ZN16Fl_PSfile_Device5colorEj @1744
    _ZN16Fl_PSfile_Device5curveEdddddddd @1745
    _ZN16Fl_PSfile_Device5pointEii @1746
    _ZN16Fl_PSfile_Device5rectfEiiii @1747
    _ZN16Fl_PSfile_Device5resetEv @1748
    _ZN16Fl_PSfile_Device5scaleEff @1749
    _ZN16Fl_PSfile_Device6circleEddd @1750
    _ZN16Fl_PSfile_Device6concatEv @1751
    _ZN16Fl_PSfile_Device6originEii @1752
    _ZN16Fl_PSfile_Device6rotateEf @1753
    _ZN16Fl_PSfile_Device6vertexEdd @1754
    _ZN16Fl_PSfile_Device6xylineEiii @1755
    _ZN16Fl_PSfile_Device6xylineEiiii @1756
    _ZN16Fl_PSfile_Device6xylineEiiiii @1757
    _ZN16Fl_PSfile_Device6yxlineEiii @1758
    _ZN16Fl_PSfile_Device6yxlineEiiii @1759
    _ZN16Fl_PSfile_Device6yxlineEiiiii @1760
    _ZN16Fl_PSfile_Device7end_jobEv @1761
    _ZN16Fl_PSfile_Device7marginsEPiS0_S0_S0_ @1762
    _ZN16Fl_PSfile_Device7polygonEiiiiii @1763
    _ZN16Fl_PSfile_Device7polygonEiiiiiiii @1764
    _ZN16Fl_PSfile_Device7recoverEv @1765
    _ZN16Fl_PSfile_Device8clip_boxEiiiiRiS0_S0_S0_ @1766
    _ZN16Fl_PSfile_Device8end_lineEv @1767
    _ZN16Fl_PSfile_Device8end_loopEv @1768
    _ZN16Fl_PSfile_Device8end_pageEv @1769
    _ZN16Fl_PSfile_Device8pop_clipEv @1770
    _ZN16Fl_PSfile_Device8reconcatEv @1771
    _ZN16Fl_PSfile_Device9push_clipEiiii @1772
    _ZN16Fl_PSfile_Device9start_jobEP6_iobufiNS_11Page_FormatENS_11Page_LayoutE @1773
    _ZN16Fl_PSfile_Device9start_jobEiNS_11Page_FormatENS_11Page_LayoutE @1774
    _ZN16Fl_PSfile_Device9translateEii @1775
    _ZN16Fl_PSfile_DeviceC1Ev @1776
    _ZN16Fl_PSfile_DeviceC2Ev @1777
    _ZN16Fl_PSfile_DeviceD0Ev @1778
    _ZN16Fl_PSfile_DeviceD1Ev @1779
    _ZN16Fl_PSfile_DeviceD2Ev @1780
    _ZN16Fl_Repeat_Button10deactivateEv @1781
    _ZN16Fl_Repeat_Button13inherits_fromEPKc @1782
    _ZN16Fl_Repeat_Button15cheap_rtti_infoEv @1783
    _ZN16Fl_Repeat_Button15repeat_callbackEPv @1784
    _ZN16Fl_Repeat_Button6handleEi @1785
    _ZN16Fl_Repeat_Button7classIdEv @1786
    _ZN16Fl_Repeat_ButtonC1EiiiiPKc @1787
    _ZN16Fl_Repeat_ButtonD0Ev @1788
    _ZN16Fl_Repeat_ButtonD1Ev @1789
    _ZN16Fl_Return_Button13inherits_fromEPKc @1790
    _ZN16Fl_Return_Button15cheap_rtti_infoEv @1791
    _ZN16Fl_Return_Button4drawEv @1792
    _ZN16Fl_Return_Button6handleEi @1793
    _ZN16Fl_Return_Button7classIdEv @1794
    _ZN16Fl_Return_ButtonC1EiiiiPKc @1795
    _ZN16Fl_Return_ButtonD0Ev @1796
    _ZN16Fl_Return_ButtonD1Ev @1797
    _ZN16Fl_Single_Window13inherits_fromEPKc @1798
    _ZN16Fl_Single_Window15cheap_rtti_infoEv @1799
    _ZN16Fl_Single_Window4showEiPPc @1800
    _ZN16Fl_Single_Window4showEv @1801
    _ZN16Fl_Single_Window5flushEv @1802
    _ZN16Fl_Single_Window7classIdEv @1803
    _ZN16Fl_Single_WindowC1EiiPKc @1804
    _ZN16Fl_Single_WindowC1EiiiiPKc @1805
    _ZN16Fl_Single_WindowC2EiiPKc @1806
    _ZN16Fl_Single_WindowC2EiiiiPKc @1807
    _ZN16Fl_Single_WindowD0Ev @1808
    _ZN16Fl_Single_WindowD1Ev @1809
    _ZN16Fl_Toggle_Button13inherits_fromEPKc @1810
    _ZN16Fl_Toggle_Button15cheap_rtti_infoEv @1811
    _ZN16Fl_Toggle_Button7classIdEv @1812
    _ZN16Fl_Toggle_Button9classNameEv @1813
    _ZN16Fl_Toggle_ButtonC1EiiiiPKc @1814
    _ZN16Fl_Toggle_ButtonD0Ev @1815
    _ZN16Fl_Toggle_ButtonD1Ev @1816
    _ZN16Flcc_Value_Input13inherits_fromEPKc @1817
    _ZN16Flcc_Value_Input15cheap_rtti_infoEv @1818
    _ZN16Flcc_Value_Input6formatEPc @1819
    _ZN16Flcc_Value_Input7classIdEv @1820
    _ZN16Flcc_Value_InputC1Eiiii @1821
    _ZN16Flcc_Value_InputD0Ev @1822
    _ZN16Flcc_Value_InputD1Ev @1823
    _ZN17Fl_Overlay_Window13inherits_fromEPKc @1824
    _ZN17Fl_Overlay_Window14can_do_overlayEv @1825
    _ZN17Fl_Overlay_Window14redraw_overlayEv @1826
    _ZN17Fl_Overlay_Window15cheap_rtti_infoEv @1827
    _ZN17Fl_Overlay_Window4hideEv @1828
    _ZN17Fl_Overlay_Window4showEiPPc @1829
    _ZN17Fl_Overlay_Window4showEv @1830
    _ZN17Fl_Overlay_Window5flushEv @1831
    _ZN17Fl_Overlay_Window6resizeEiiii @1832
    _ZN17Fl_Overlay_Window7classIdEv @1833
    _ZN17Fl_Overlay_WindowD0Ev @1834
    _ZN17Fl_Overlay_WindowD1Ev @1835
    _ZN17Fl_Overlay_WindowD2Ev @1836
    _ZN17Fl_Plugin_Manager12removePluginEPv @1837
    _ZN17Fl_Plugin_Manager4loadEPKc @1838
    _ZN17Fl_Plugin_Manager6pluginEPKc @1839
    _ZN17Fl_Plugin_Manager6pluginEi @1840
    _ZN17Fl_Plugin_Manager7loadAllEPKcS1_ @1841
    _ZN17Fl_Plugin_Manager9addPluginEPKcP9Fl_Plugin @1842
    _ZN17Fl_Plugin_ManagerC1EPKc @1843
    _ZN17Fl_Plugin_ManagerC2EPKc @1844
    _ZN17Fl_Plugin_ManagerD1Ev @1845
    _ZN17Fl_Plugin_ManagerD2Ev @1846
    _ZN17Fl_Select_Browser13inherits_fromEPKc @1847
    _ZN17Fl_Select_Browser15cheap_rtti_infoEv @1848
    _ZN17Fl_Select_Browser7classIdEv @1849
    _ZN17Fl_Select_Browser9classNameEv @1850
    _ZN17Fl_Select_BrowserC1EiiiiPKc @1851
    _ZN17Fl_Select_BrowserD0Ev @1852
    _ZN17Fl_Select_BrowserD1Ev @1853
    _ZN17Fl_Simple_Counter13inherits_fromEPKc @1854
    _ZN17Fl_Simple_Counter15cheap_rtti_infoEv @1855
    _ZN17Fl_Simple_Counter7classIdEv @1856
    _ZN17Fl_Simple_Counter9classNameEv @1857
    _ZN17Fl_Simple_CounterC1EiiiiPKc @1858
    _ZN17Fl_Simple_CounterD0Ev @1859
    _ZN17Fl_Simple_CounterD1Ev @1860
    _ZN17Fl_Text_Selection15set_rectangularEiiii @1861
    _ZN17Fl_Text_Selection3setEii @1862
    _ZN17Fl_Text_Selection6updateEiii @1863
    _ZN17Fl_Text_Selection8selectedEc @1864
    _ZN17Fl_Widget_Tracker6existsEv @1865
    _ZN17Fl_Widget_Tracker6widgetEv @1866
    _ZN17Fl_Widget_Tracker7deletedEv @1867
    _ZN17Fl_Widget_TrackerC1EP9Fl_Widget @1868
    _ZN17Fl_Widget_TrackerC2EP9Fl_Widget @1869
    _ZN17Fl_Widget_TrackerD1Ev @1870
    _ZN17Fl_Widget_TrackerD2Ev @1871
    _ZN17Flve_Check_Button6handleEi @1872
    _ZN17Flve_Check_ButtonC1EiiiiPKc @1873
    _ZN17Flve_Check_ButtonD0Ev @1874
    _ZN17Flve_Check_ButtonD1Ev @1875
    _ZN18Fl_Font_DescriptorC1EPKci @1876
    _ZN18Fl_Font_DescriptorC2EPKci @1877
    _ZN18Fl_Font_DescriptorD1Ev @1878
    _ZN18Fl_Font_DescriptorD2Ev @1879
    _ZN18Fl_Hor_Fill_Slider13inherits_fromEPKc @1880
    _ZN18Fl_Hor_Fill_Slider15cheap_rtti_infoEv @1881
    _ZN18Fl_Hor_Fill_Slider7classIdEv @1882
    _ZN18Fl_Hor_Fill_Slider9classNameEv @1883
    _ZN18Fl_Hor_Fill_SliderC1EiiiiPKc @1884
    _ZN18Fl_Hor_Fill_SliderD0Ev @1885
    _ZN18Fl_Hor_Fill_SliderD1Ev @1886
    _ZN18Fl_Hor_Nice_Slider13inherits_fromEPKc @1887
    _ZN18Fl_Hor_Nice_Slider15cheap_rtti_infoEv @1888
    _ZN18Fl_Hor_Nice_Slider7classIdEv @1889
    _ZN18Fl_Hor_Nice_Slider9classNameEv @1890
    _ZN18Fl_Hor_Nice_SliderC1EiiiiPKc @1891
    _ZN18Fl_Hor_Nice_SliderD0Ev @1892
    _ZN18Fl_Hor_Nice_SliderD1Ev @1893
    _ZN18Fl_Multiline_Input13inherits_fromEPKc @1894
    _ZN18Fl_Multiline_Input15cheap_rtti_infoEv @1895
    _ZN18Fl_Multiline_Input7classIdEv @1896
    _ZN18Fl_Multiline_Input9classNameEv @1897
    _ZN18Fl_Multiline_InputC1EiiiiPKc @1898
    _ZN18Fl_Multiline_InputD0Ev @1899
    _ZN18Fl_Multiline_InputD1Ev @1900
    _ZN18Fl_Tree_Item_Array3addEP12Fl_Tree_Item @1901
    _ZN18Fl_Tree_Item_Array4swapEii @1902
    _ZN18Fl_Tree_Item_Array5clearEv @1903
    _ZN18Fl_Tree_Item_Array6insertEiP12Fl_Tree_Item @1904
    _ZN18Fl_Tree_Item_Array6removeEP12Fl_Tree_Item @1905
    _ZN18Fl_Tree_Item_Array6removeEi @1906
    _ZN18Fl_Tree_Item_Array7enlargeEi @1907
    _ZN18Fl_Tree_Item_ArrayC1EPKS_ @1908
    _ZN18Fl_Tree_Item_ArrayC1Ei @1909
    _ZN18Fl_Tree_Item_ArrayC2EPKS_ @1910
    _ZN18Fl_Tree_Item_ArrayC2Ei @1911
    _ZN18Fl_Tree_Item_ArrayD1Ev @1912
    _ZN18Fl_Tree_Item_ArrayD2Ev @1913
    _ZN18Fl_Tree_Item_ArrayixEi @1914
    _ZN19Fl_Abstract_Printer10start_pageEv @1915
    _ZN19Fl_Abstract_Printer11set_currentEv @1916
    _ZN19Fl_Abstract_Printer11untranslateEv @1917
    _ZN19Fl_Abstract_Printer12print_widgetEP9Fl_Widgetii @1918
    _ZN19Fl_Abstract_Printer14printable_rectEPiS0_ @1919
    _ZN19Fl_Abstract_Printer17print_window_partEP9Fl_Windowiiiiii @1920
    _ZN19Fl_Abstract_Printer5scaleEff @1921
    _ZN19Fl_Abstract_Printer6originEPiS0_ @1922
    _ZN19Fl_Abstract_Printer6originEii @1923
    _ZN19Fl_Abstract_Printer6rotateEf @1924
    _ZN19Fl_Abstract_Printer7end_jobEv @1925
    _ZN19Fl_Abstract_Printer7marginsEPiS0_S0_S0_ @1926
    _ZN19Fl_Abstract_Printer8end_pageEv @1927
    _ZN19Fl_Abstract_Printer8traverseEP9Fl_Widget @1928
    _ZN19Fl_Abstract_Printer9start_jobEiPiS0_ @1929
    _ZN19Fl_Abstract_Printer9translateEii @1930
    _ZN19Fl_Abstract_PrinterD0Ev @1931
    _ZN19Fl_Abstract_PrinterD1Ev @1932
    _ZN19Fl_Hor_Value_Slider13inherits_fromEPKc @1933
    _ZN19Fl_Hor_Value_Slider15cheap_rtti_infoEv @1934
    _ZN19Fl_Hor_Value_Slider7classIdEv @1935
    _ZN19Fl_Hor_Value_Slider9classNameEv @1936
    _ZN19Fl_Hor_Value_SliderC1EiiiiPKc @1937
    _ZN19Fl_Hor_Value_SliderD0Ev @1938
    _ZN19Fl_Hor_Value_SliderD1Ev @1939
    _ZN19Fl_Multiline_Output13inherits_fromEPKc @1940
    _ZN19Fl_Multiline_Output15cheap_rtti_infoEv @1941
    _ZN19Fl_Multiline_Output7classIdEv @1942
    _ZN19Fl_Multiline_Output9classNameEv @1943
    _ZN19Fl_Multiline_OutputC1EiiiiPKc @1944
    _ZN19Fl_Multiline_OutputD0Ev @1945
    _ZN19Fl_Multiline_OutputD1Ev @1946
    _ZN21Fl_Radio_Light_Button13inherits_fromEPKc @1947
    _ZN21Fl_Radio_Light_Button15cheap_rtti_infoEv @1948
    _ZN21Fl_Radio_Light_Button7classIdEv @1949
    _ZN21Fl_Radio_Light_Button9classNameEv @1950
    _ZN21Fl_Radio_Light_ButtonC1EiiiiPKc @1951
    _ZN21Fl_Radio_Light_ButtonD0Ev @1952
    _ZN21Fl_Radio_Light_ButtonD1Ev @1953
    _ZN21Fl_Radio_Round_Button13inherits_fromEPKc @1954
    _ZN21Fl_Radio_Round_Button15cheap_rtti_infoEv @1955
    _ZN21Fl_Radio_Round_Button7classIdEv @1956
    _ZN21Fl_Radio_Round_Button9classNameEv @1957
    _ZN21Fl_Radio_Round_ButtonC1EiiiiPKc @1958
    _ZN21Fl_Radio_Round_ButtonD0Ev @1959
    _ZN21Fl_Radio_Round_ButtonD1Ev @1960
    _ZN22Fl_Native_File_Chooser10add_filterEPKcS1_ @1961
    _ZN22Fl_Native_File_Chooser11preset_fileEPKc @1962
    _ZN22Fl_Native_File_Chooser12add_pathnameEPKc @1963
    _ZN22Fl_Native_File_Chooser12filter_valueEi @1964
    _ZN22Fl_Native_File_Chooser12parse_filterEPKc @1965
    _ZN22Fl_Native_File_Chooser13clear_filtersEv @1966
    _ZN22Fl_Native_File_Chooser15clear_pathnamesEv @1967
    _ZN22Fl_Native_File_Chooser19set_single_pathnameEPKc @1968
    _ZN22Fl_Native_File_Chooser4showEv @1969
    _ZN22Fl_Native_File_Chooser4typeEi @1970
    _ZN22Fl_Native_File_Chooser5titleEPKc @1971
    _ZN22Fl_Native_File_Chooser6Dir_CBEP6HWND__jll@16 @1972
    _ZN22Fl_Native_File_Chooser6errmsgEPKc @1973
    _ZN22Fl_Native_File_Chooser6filterEPKc @1974
    _ZN22Fl_Native_File_Chooser7optionsEi @1975
    _ZN22Fl_Native_File_Chooser7showdirEv @1976
    _ZN22Fl_Native_File_Chooser8ClearOFNEv @1977
    _ZN22Fl_Native_File_Chooser8FreePIDLEP11_ITEMIDLIST @1978
    _ZN22Fl_Native_File_Chooser8Unix2WinEPc @1979
    _ZN22Fl_Native_File_Chooser8Win2UnixEPc @1980
    _ZN22Fl_Native_File_Chooser8showfileEv @1981
    _ZN22Fl_Native_File_Chooser9ClearBINFEv @1982
    _ZN22Fl_Native_File_Chooser9directoryEPKc @1983
    _ZN22Fl_Native_File_ChooserC1Ei @1984
    _ZN22Fl_Native_File_ChooserC2Ei @1985
    _ZN22Fl_Native_File_ChooserD1Ev @1986
    _ZN22Fl_Native_File_ChooserD2Ev @1987
    _ZN2Fl10backgroundEhhh @1988
    _ZN2Fl10belowmouseEP9Fl_Widget @1989
    _ZN2Fl10belowmouseEv @1990
    _ZN2Fl10e_is_clickE @1991 DATA
    _ZN2Fl10event_ctrlEv @1992
    _ZN2Fl10event_textEv @1993
    _ZN2Fl10foregroundEhhh @1994
    _ZN2Fl10free_colorEji @1995
    _ZN2Fl10scheme_bg_E @1996 DATA
    _ZN2Fl11add_handlerEPFiiE @1997
    _ZN2Fl11add_timeoutEdPFvPvES0_ @1998
    _ZN2Fl11awake_data_E @1999 DATA
    _ZN2Fl11awake_ring_E @2000 DATA
    _ZN2Fl11background2Ehhh @2001
    _ZN2Fl11belowmouse_E @2002 DATA
    _ZN2Fl11event_shiftEv @2003
    _ZN2Fl11event_stateEi @2004
    _ZN2Fl11event_stateEv @2005
    _ZN2Fl11get_boxtypeE10Fl_Boxtype @2006
    _ZN2Fl11has_timeoutEPFvPvES0_ @2007
    _ZN2Fl11next_windowEPK9Fl_Window @2008
    _ZN2Fl11remove_idleEPFvPvES0_ @2009
    _ZN2Fl11screen_xywhERiS0_S0_S0_ @2010
    _ZN2Fl11screen_xywhERiS0_S0_S0_i @2011
    _ZN2Fl11screen_xywhERiS0_S0_S0_ii @2012
    _ZN2Fl11set_atcloseEPFvP9Fl_WindowPvE @2013
    _ZN2Fl11set_boxtypeE10Fl_BoxtypePFviiiijEhhhh @2014
    _ZN2Fl11set_boxtypeE10Fl_BoxtypeS0_ @2015
    _ZN2Fl12dnd_text_opsEi @2016
    _ZN2Fl12dnd_text_opsEv @2017
    _ZN2Fl12event_buttonEv @2018
    _ZN2Fl12event_clicksEi @2019
    _ZN2Fl12event_clicksEv @2020
    _ZN2Fl12event_insideEPK9Fl_Widget @2021
    _ZN2Fl12event_insideEiiii @2022
    _ZN2Fl12event_lengthEv @2023
    _ZN2Fl12event_x_rootEv @2024
    _ZN2Fl12event_y_rootEv @2025
    _ZN2Fl12first_windowEP9Fl_Window @2026
    _ZN2Fl12first_windowEv @2027
    _ZN2Fl12own_colormapEv @2028
    _ZN2Fl12remove_checkEPFvPvES0_ @2029
    _ZN2Fl12screen_countEv @2030
    _ZN2Fl13compose_resetEv @2031
    _ZN2Fl13compose_stateE @2032 DATA
    _ZN2Fl13delete_widgetEP9Fl_Widget @2033
    _ZN2Fl13dnd_text_ops_E @2034 DATA
    _ZN2Fl13event_button1Ev @2035
    _ZN2Fl13event_button2Ev @2036
    _ZN2Fl13event_button3Ev @2037
    _ZN2Fl13event_buttonsEv @2038
    _ZN2Fl13event_commandEv @2039
    _ZN2Fl13get_font_nameEiPi @2040
    _ZN2Fl13reload_schemeEv @2041
    _ZN2Fl13set_labeltypeE12Fl_LabeltypePFvPK8Fl_LabeliiiijEPFvS3_RiS6_E @2042
    _ZN2Fl13test_shortcutEj @2043
    _ZN2Fl13visible_focusEi @2044
    _ZN2Fl13visible_focusEv @2045
    _ZN2Fl14event_is_clickEi @2046
    _ZN2Fl14event_is_clickEv @2047
    _ZN2Fl14get_font_sizesEiRPi @2048
    _ZN2Fl14remove_handlerEPFiiE @2049
    _ZN2Fl14remove_timeoutEPFvPvES0_ @2050
    _ZN2Fl14repeat_timeoutEdPFvPvES0_ @2051
    _ZN2Fl14scrollbar_sizeEi @2052
    _ZN2Fl14scrollbar_sizeEv @2053
    _ZN2Fl14thread_messageEv @2054
    _ZN2Fl14visible_focus_E @2055 DATA
    _ZN2Fl15default_atcloseEP9Fl_WindowPv @2056
    _ZN2Fl15draw_box_activeEv @2057
    _ZN2Fl15scrollbar_size_E @2058 DATA
    _ZN2Fl15selection_ownerEP9Fl_Widget @2059
    _ZN2Fl15selection_ownerEv @2060
    _ZN2Fl16awake_ring_head_E @2061 DATA
    _ZN2Fl16awake_ring_size_E @2062 DATA
    _ZN2Fl16awake_ring_tail_E @2063 DATA
    _ZN2Fl16selection_owner_E @2064 DATA
    _ZN2Fl17e_original_keysymE @2065 DATA
    _ZN2Fl17get_system_colorsEv @2066
    _ZN2Fl18add_awake_handler_EPFvPvES0_ @2067
    _ZN2Fl18do_widget_deletionEv @2068
    _ZN2Fl18event_original_keyEv @2069
    _ZN2Fl18get_awake_handler_ERPFvPvERS0_ @2070
    _ZN2Fl1hEv @2071
    _ZN2Fl1wEv @2072
    _ZN2Fl1xEv @2073
    _ZN2Fl1yEv @2074
    _ZN2Fl20clear_widget_pointerEPK9Fl_Widget @2075
    _ZN2Fl20watch_widget_pointerERP9Fl_Widget @2076
    _ZN2Fl22release_widget_pointerERP9Fl_Widget @2077
    _ZN2Fl3argEiPPcRi @2078
    _ZN2Fl3dndEv @2079
    _ZN2Fl3e_xE @2080 DATA
    _ZN2Fl3e_yE @2081 DATA
    _ZN2Fl3runEv @2082
    _ZN2Fl4argsEiPPc @2083
    _ZN2Fl4argsEiPPcRiPFiiS1_S2_E @2084
    _ZN2Fl4copyEPKcii @2085
    _ZN2Fl4e_dxE @2086 DATA
    _ZN2Fl4e_dyE @2087 DATA
    _ZN2Fl4grabEP9Fl_Window @2088
    _ZN2Fl4grabEv @2089
    _ZN2Fl4helpE @2090 DATA
    _ZN2Fl4idleE @2091 DATA
    _ZN2Fl4lockEv @2092
    _ZN2Fl4waitEd @2093
    _ZN2Fl4waitEv @2094
    _ZN2Fl5awakeEPFvPvES0_ @2095
    _ZN2Fl5awakeEPv @2096
    _ZN2Fl5checkEv @2097
    _ZN2Fl5errorE @2098 DATA
    _ZN2Fl5eventEv @2099
    _ZN2Fl5fatalE @2100 DATA
    _ZN2Fl5flushEv @2101
    _ZN2Fl5focusEP9Fl_Widget @2102
    _ZN2Fl5focusEv @2103
    _ZN2Fl5grab_E @2104 DATA
    _ZN2Fl5modalEv @2105
    _ZN2Fl5pasteER9Fl_Widget @2106
    _ZN2Fl5pasteER9Fl_Widgeti @2107
    _ZN2Fl5readyEv @2108
    _ZN2Fl6add_fdEiPFviPvES0_ @2109
    _ZN2Fl6add_fdEiiPFviPvES0_ @2110
    _ZN2Fl6box_dhE10Fl_Boxtype @2111
    _ZN2Fl6box_dwE10Fl_Boxtype @2112
    _ZN2Fl6box_dxE10Fl_Boxtype @2113
    _ZN2Fl6box_dyE10Fl_Boxtype @2114
    _ZN2Fl6damageEi @2115
    _ZN2Fl6damageEv @2116
    _ZN2Fl6e_textE @2117 DATA
    _ZN2Fl6focus_E @2118 DATA
    _ZN2Fl6handleEiP9Fl_Window @2119
    _ZN2Fl6modal_E @2120 DATA
    _ZN2Fl6pushedEP9Fl_Widget @2121
    _ZN2Fl6pushedEv @2122
    _ZN2Fl6redrawEv @2123
    _ZN2Fl6schemeEPKc @2124
    _ZN2Fl6schemeEv @2125
    _ZN2Fl6unlockEv @2126
    _ZN2Fl6visualEi @2127
    _ZN2Fl7atcloseE @2128 DATA
    _ZN2Fl7composeERi @2129
    _ZN2Fl7damage_E @2130 DATA
    _ZN2Fl7displayEPKc @2131
    _ZN2Fl7e_stateE @2132 DATA
    _ZN2Fl7event_xEv @2133
    _ZN2Fl7event_yEv @2134
    _ZN2Fl7get_keyEi @2135
    _ZN2Fl7pushed_E @2136 DATA
    _ZN2Fl7releaseEv @2137
    _ZN2Fl7scheme_E @2138 DATA
    _ZN2Fl7versionEv @2139
    _ZN2Fl7warningE @2140 DATA
    _ZN2Fl8add_idleEPFvPvES0_ @2141
    _ZN2Fl8e_clicksE @2142 DATA
    _ZN2Fl8e_keysymE @2143 DATA
    _ZN2Fl8e_lengthE @2144 DATA
    _ZN2Fl8e_numberE @2145 DATA
    _ZN2Fl8e_x_rootE @2146 DATA
    _ZN2Fl8e_y_rootE @2147 DATA
    _ZN2Fl8event_dxEv @2148
    _ZN2Fl8event_dyEv @2149
    _ZN2Fl8get_fontEi @2150
    _ZN2Fl8has_idleEPFvPvES0_ @2151
    _ZN2Fl8set_fontEiPKc @2152
    _ZN2Fl8set_fontEii @2153
    _ZN2Fl8set_idleEPFvvE @2154
    _ZN2Fl9add_checkEPFvPvES0_ @2155
    _ZN2Fl9event_altEv @2156
    _ZN2Fl9event_keyEi @2157
    _ZN2Fl9event_keyEv @2158
    _ZN2Fl9get_colorEj @2159
    _ZN2Fl9get_colorEjRhS0_S0_ @2160
    _ZN2Fl9get_mouseERiS0_ @2161
    _ZN2Fl9has_checkEPFvPvES0_ @2162
    _ZN2Fl9readqueueEv @2163
    _ZN2Fl9remove_fdEi @2164
    _ZN2Fl9remove_fdEii @2165
    _ZN2Fl9selectionER9Fl_WidgetPKci @2166
    _ZN2Fl9set_abortEPFvPKczE @2167
    _ZN2Fl9set_colorEjhhh @2168
    _ZN2Fl9set_colorEjj @2169
    _ZN2Fl9set_fontsEPKc @2170
    _ZN2Fl9user_dataE @2171 DATA
    _ZN4Fl_X10set_minmaxEP13tagMINMAXINFO @2172
    _ZN4Fl_X4makeEP9Fl_Window @2173
    _ZN4Fl_X5firstE @2174 DATA
    _ZN4Fl_X9fake_X_wmEPK9Fl_WindowRiS3_S3_S3_S3_ @2175
    _ZN6Fl_Box13inherits_fromEPKc @2176
    _ZN6Fl_Box15cheap_rtti_infoEv @2177
    _ZN6Fl_Box4drawEv @2178
    _ZN6Fl_Box6handleEi @2179
    _ZN6Fl_Box7classIdEv @2180
    _ZN6Fl_BoxC1E10Fl_BoxtypeiiiiPKc @2181
    _ZN6Fl_BoxC1EiiiiPKc @2182
    _ZN6Fl_BoxD0Ev @2183
    _ZN6Fl_BoxD1Ev @2184
    _ZN7Fl_Dial13inherits_fromEPKc @2185
    _ZN7Fl_Dial15cheap_rtti_infoEv @2186
    _ZN7Fl_Dial4drawEiiii @2187
    _ZN7Fl_Dial4drawEv @2188
    _ZN7Fl_Dial6angle1Es @2189
    _ZN7Fl_Dial6angle2Es @2190
    _ZN7Fl_Dial6anglesEss @2191
    _ZN7Fl_Dial6handleEi @2192
    _ZN7Fl_Dial6handleEiiiii @2193
    _ZN7Fl_Dial7classIdEv @2194
    _ZN7Fl_Dial9classNameEv @2195
    _ZN7Fl_DialC1EiiiiPKc @2196
    _ZN7Fl_DialC2EiiiiPKc @2197
    _ZN7Fl_DialD0Ev @2198
    _ZN7Fl_DialD1Ev @2199
    _ZN7Fl_DialD2Ev @2200
    _ZN7Fl_Pack13inherits_fromEPKc @2201
    _ZN7Fl_Pack15cheap_rtti_infoEv @2202
    _ZN7Fl_Pack4drawEv @2203
    _ZN7Fl_Pack7classIdEv @2204
    _ZN7Fl_Pack7spacingEi @2205
    _ZN7Fl_PackC1EiiiiPKc @2206
    _ZN7Fl_PackC2EiiiiPKc @2207
    _ZN7Fl_PackD0Ev @2208
    _ZN7Fl_PackD1Ev @2209
    _ZN7Fl_Tabs10tab_heightEv @2210
    _ZN7Fl_Tabs11redraw_tabsEv @2211
    _ZN7Fl_Tabs13inherits_fromEPKc @2212
    _ZN7Fl_Tabs13tab_positionsEPiS0_ @2213
    _ZN7Fl_Tabs15cheap_rtti_infoEv @2214
    _ZN7Fl_Tabs4drawEv @2215
    _ZN7Fl_Tabs4pushEP9Fl_Widget @2216
    _ZN7Fl_Tabs5valueEP9Fl_Widget @2217
    _ZN7Fl_Tabs5valueEv @2218
    _ZN7Fl_Tabs5whichEii @2219
    _ZN7Fl_Tabs6handleEi @2220
    _ZN7Fl_Tabs7classIdEv @2221
    _ZN7Fl_Tabs8draw_tabEiiiiP9Fl_Widgeti @2222
    _ZN7Fl_TabsC1EiiiiPKc @2223
    _ZN7Fl_TabsC2EiiiiPKc @2224
    _ZN7Fl_TabsD0Ev @2225
    _ZN7Fl_TabsD1Ev @2226
    _ZN7Fl_Tile13inherits_fromEPKc @2227
    _ZN7Fl_Tile15cheap_rtti_infoEv @2228
    _ZN7Fl_Tile6handleEi @2229
    _ZN7Fl_Tile6resizeEiiii @2230
    _ZN7Fl_Tile7classIdEv @2231
    _ZN7Fl_Tile8positionEiiii @2232
    _ZN7Fl_TileC1EiiiiPKc @2233
    _ZN7Fl_TileD0Ev @2234
    _ZN7Fl_TileD1Ev @2235
    _ZN7Fl_Tree10marginleftEi @2236
    _ZN7Fl_Tree10root_labelEPKc @2237
    _ZN7Fl_Tree10select_allEP12Fl_Tree_Itemi @2238
    _ZN7Fl_Tree10selectmodeE14Fl_Tree_Select @2239
    _ZN7Fl_Tree11is_selectedEPKc @2240
    _ZN7Fl_Tree11select_onlyEP12Fl_Tree_Itemi @2241
    _ZN7Fl_Tree12deselect_allEP12Fl_Tree_Itemi @2242
    _ZN7Fl_Tree12insert_aboveEP12Fl_Tree_ItemPKc @2243
    _ZN7Fl_Tree12item_clickedEv @2244
    _ZN7Fl_Tree12showcollapseEi @2245
    _ZN7Fl_Tree13inherits_fromEPKc @2246
    _ZN7Fl_Tree13select_toggleEP12Fl_Tree_Itemi @2247
    _ZN7Fl_Tree14clear_childrenEP12Fl_Tree_Item @2248
    _ZN7Fl_Tree14connectorstyleE17Fl_Tree_Connector @2249
    _ZN7Fl_Tree14connectorwidthEi @2250
    _ZN7Fl_Tree15cheap_rtti_infoEv @2251
    _ZN7Fl_Tree20do_callback_for_itemEP12Fl_Tree_Item @2252
    _ZN7Fl_Tree22openchild_marginbottomEi @2253
    _ZN7Fl_Tree3addEP12Fl_Tree_ItemPKc @2254
    _ZN7Fl_Tree3addEPKc @2255
    _ZN7Fl_Tree4drawEv @2256
    _ZN7Fl_Tree4lastEv @2257
    _ZN7Fl_Tree4openEP12Fl_Tree_Item @2258
    _ZN7Fl_Tree4openEPKc @2259
    _ZN7Fl_Tree4rootEv @2260
    _ZN7Fl_Tree5clearEv @2261
    _ZN7Fl_Tree5closeEP12Fl_Tree_Item @2262
    _ZN7Fl_Tree5closeEPKc @2263
    _ZN7Fl_Tree5firstEv @2264
    _ZN7Fl_Tree6handleEi @2265
    _ZN7Fl_Tree6insertEP12Fl_Tree_ItemPKci @2266
    _ZN7Fl_Tree6parentEP12Fl_Tree_Item @2267
    _ZN7Fl_Tree6removeEP12Fl_Tree_Item @2268
    _ZN7Fl_Tree6selectEP12Fl_Tree_Itemi @2269
    _ZN7Fl_Tree6selectEPKci @2270
    _ZN7Fl_Tree7classIdEv @2271
    _ZN7Fl_Tree8deselectEP12Fl_Tree_Itemi @2272
    _ZN7Fl_Tree8deselectEPKci @2273
    _ZN7Fl_Tree8openiconEP8Fl_Image @2274
    _ZN7Fl_Tree8showrootEi @2275
    _ZN7Fl_Tree8usericonEP8Fl_Image @2276
    _ZN7Fl_Tree9closeiconEP8Fl_Image @2277
    _ZN7Fl_Tree9find_itemEPKc @2278
    _ZN7Fl_Tree9labelfontEi @2279
    _ZN7Fl_Tree9labelsizeEi @2280
    _ZN7Fl_Tree9margintopEi @2281
    _ZN7Fl_Tree9selectboxE10Fl_Boxtype @2282
    _ZN7Fl_Tree9show_selfEv @2283
    _ZN7Fl_Tree9sortorderE12Fl_Tree_Sort @2284
    _ZN7Fl_TreeC1EiiiiPKc @2285
    _ZN7Fl_TreeC2EiiiiPKc @2286
    _ZN7Fl_TreeD0Ev @2287
    _ZN7Fl_TreeD1Ev @2288
    _ZN7Fl_TreeD2Ev @2289
    _ZN8Fl_Chart13inherits_fromEPKc @2290
    _ZN8Fl_Chart15cheap_rtti_infoEv @2291
    _ZN8Fl_Chart3addEdPKcj @2292
    _ZN8Fl_Chart4drawEv @2293
    _ZN8Fl_Chart4sizeEii @2294
    _ZN8Fl_Chart5clearEv @2295
    _ZN8Fl_Chart6boundsEdd @2296
    _ZN8Fl_Chart6insertEidPKcj @2297
    _ZN8Fl_Chart7classIdEv @2298
    _ZN8Fl_Chart7maxsizeEi @2299
    _ZN8Fl_Chart7replaceEidPKcj @2300
    _ZN8Fl_Chart8autosizeEh @2301
    _ZN8Fl_Chart8textfontEi @2302
    _ZN8Fl_Chart8textsizeEi @2303
    _ZN8Fl_Chart9textcolorEj @2304
    _ZN8Fl_ChartC1EiiiiPKc @2305
    _ZN8Fl_ChartC2EiiiiPKc @2306
    _ZN8Fl_ChartD0Ev @2307
    _ZN8Fl_ChartD1Ev @2308
    _ZN8Fl_ChartD2Ev @2309
    _ZN8Fl_Clock13inherits_fromEPKc @2310
    _ZN8Fl_Clock15cheap_rtti_infoEv @2311
    _ZN8Fl_Clock6handleEi @2312
    _ZN8Fl_Clock7classIdEv @2313
    _ZN8Fl_ClockC1EhiiiiPKc @2314
    _ZN8Fl_ClockC1EiiiiPKc @2315
    _ZN8Fl_ClockC2EhiiiiPKc @2316
    _ZN8Fl_ClockC2EiiiiPKc @2317
    _ZN8Fl_ClockD0Ev @2318
    _ZN8Fl_ClockD1Ev @2319
    _ZN8Fl_ClockD2Ev @2320
    _ZN8Fl_Group10init_sizesEv @2321
    _ZN8Fl_Group10navigationEi @2322
    _ZN8Fl_Group10resizefontEf @2323
    _ZN8Fl_Group13add_resizableER9Fl_Widget @2324
    _ZN8Fl_Group13clip_childrenEi @2325
    _ZN8Fl_Group13clip_childrenEv @2326
    _ZN8Fl_Group13draw_childrenEv @2327
    _ZN8Fl_Group13inherits_fromEPKc @2328
    _ZN8Fl_Group15cheap_rtti_infoEv @2329
    _ZN8Fl_Group3addEP9Fl_Widget @2330
    _ZN8Fl_Group3addER9Fl_Widget @2331
    _ZN8Fl_Group3endEv @2332
    _ZN8Fl_Group4drawEv @2333
    _ZN8Fl_Group5beginEv @2334
    _ZN8Fl_Group5clearEv @2335
    _ZN8Fl_Group5focusEP9Fl_Widget @2336
    _ZN8Fl_Group5sizesEv @2337
    _ZN8Fl_Group6handleEi @2338
    _ZN8Fl_Group6insertER9Fl_WidgetPS0_ @2339
    _ZN8Fl_Group6insertER9Fl_Widgeti @2340
    _ZN8Fl_Group6removeEP9Fl_Widget @2341
    _ZN8Fl_Group6removeER9Fl_Widget @2342
    _ZN8Fl_Group6resizeEiiii @2343
    _ZN8Fl_Group7classIdEv @2344
    _ZN8Fl_Group7currentEPS_ @2345
    _ZN8Fl_Group7currentEv @2346
    _ZN8Fl_Group8as_groupEv @2347
    _ZN8Fl_Group8current_E @2348 DATA
    _ZN8Fl_Group9resizableEP9Fl_Widget @2349
    _ZN8Fl_GroupC1EiiiiPKc @2350
    _ZN8Fl_GroupC2EiiiiPKc @2351
    _ZN8Fl_GroupD0Ev @2352
    _ZN8Fl_GroupD1Ev @2353
    _ZN8Fl_GroupD2Ev @2354
    _ZN8Fl_Image10desaturateEv @2355
    _ZN8Fl_Image10draw_emptyEii @2356
    _ZN8Fl_Image13color_averageEjf @2357
    _ZN8Fl_Image13inherits_fromEPKc @2358
    _ZN8Fl_Image15cheap_rtti_infoEv @2359
    _ZN8Fl_Image2ldEi @2360
    _ZN8Fl_Image4copyEii @2361
    _ZN8Fl_Image4copyEv @2362
    _ZN8Fl_Image4dataEPKPKci @2363
    _ZN8Fl_Image4drawEii @2364
    _ZN8Fl_Image4drawEiiiiii @2365
    _ZN8Fl_Image5labelEP12Fl_Menu_Item @2366
    _ZN8Fl_Image5labelEP9Fl_Widget @2367
    _ZN8Fl_Image7classIdEv @2368
    _ZN8Fl_Image7measureEPK8Fl_LabelRiS3_ @2369
    _ZN8Fl_Image7uncacheEv @2370
    _ZN8Fl_Image8inactiveEv @2371
    _ZN8Fl_Image9labeltypeEPK8Fl_Labeliiiij @2372
    _ZN8Fl_ImageC1Eiii @2373
    _ZN8Fl_ImageC2Eiii @2374
    _ZN8Fl_ImageD0Ev @2375
    _ZN8Fl_ImageD1Ev @2376
    _ZN8Fl_ImageD2Ev @2377
    _ZN8Fl_Input10handle_keyEv @2378
    _ZN8Fl_Input13inherits_fromEPKc @2379
    _ZN8Fl_Input14shift_positionEi @2380
    _ZN8Fl_Input15cheap_rtti_infoEv @2381
    _ZN8Fl_Input22shift_up_down_positionEi @2382
    _ZN8Fl_Input4drawEv @2383
    _ZN8Fl_Input6handleEi @2384
    _ZN8Fl_Input7classIdEv @2385
    _ZN8Fl_Input9classNameEv @2386
    _ZN8Fl_InputC1EiiiiPKc @2387
    _ZN8Fl_InputC2EiiiiPKc @2388
    _ZN8Fl_InputD0Ev @2389
    _ZN8Fl_InputD1Ev @2390
    _ZN8Fl_InputD2Ev @2391
    _ZN8Fl_Menu_10down_colorEj @2392
    _ZN8Fl_Menu_13clear_submenuEi @2393
    _ZN8Fl_Menu_13inherits_fromEPKc @2394
    _ZN8Fl_Menu_13test_shortcutEv @2395
    _ZN8Fl_Menu_15cheap_rtti_infoEv @2396
    _ZN8Fl_Menu_3addEPKc @2397
    _ZN8Fl_Menu_3addEPKcS1_PFvP9Fl_WidgetPvES4_i @2398
    _ZN8Fl_Menu_3addEPKciPFvP9Fl_WidgetPvES4_i @2399
    _ZN8Fl_Menu_4copyEPK12Fl_Menu_ItemPv @2400
    _ZN8Fl_Menu_4menuEPK12Fl_Menu_Item @2401
    _ZN8Fl_Menu_4modeEii @2402
    _ZN8Fl_Menu_4sizeEii @2403
    _ZN8Fl_Menu_5clearEv @2404
    _ZN8Fl_Menu_5valueEPK12Fl_Menu_Item @2405
    _ZN8Fl_Menu_5valueEi @2406
    _ZN8Fl_Menu_6globalEv @2407
    _ZN8Fl_Menu_6insertEiPKcS1_PFvP9Fl_WidgetPvES4_i @2408
    _ZN8Fl_Menu_6insertEiPKciPFvP9Fl_WidgetPvES4_i @2409
    _ZN8Fl_Menu_6pickedEPK12Fl_Menu_Item @2410
    _ZN8Fl_Menu_6removeEi @2411
    _ZN8Fl_Menu_7classIdEv @2412
    _ZN8Fl_Menu_7replaceEiPKc @2413
    _ZN8Fl_Menu_8down_boxE10Fl_Boxtype @2414
    _ZN8Fl_Menu_8shortcutEii @2415
    _ZN8Fl_Menu_8textfontEi @2416
    _ZN8Fl_Menu_8textsizeEi @2417
    _ZN8Fl_Menu_9find_itemEPFvP9Fl_WidgetPvE @2418
    _ZN8Fl_Menu_9find_itemEPKc @2419
    _ZN8Fl_Menu_9textcolorEj @2420
    _ZN8Fl_Menu_C1EiiiiPKc @2421
    _ZN8Fl_Menu_C2EiiiiPKc @2422
    _ZN8Fl_Menu_D0Ev @2423
    _ZN8Fl_Menu_D1Ev @2424
    _ZN8Fl_Menu_D2Ev @2425
    _ZN8Fl_Table10col_headerEi @2426
    _ZN8Fl_Table10col_headerEv @2427
    _ZN8Fl_Table10col_resizeEi @2428
    _ZN8Fl_Table10col_resizeEv @2429
    _ZN8Fl_Table10get_boundsENS_12TableContextERiS1_S1_S1_ @2430
    _ZN8Fl_Table10init_sizesEv @2431
    _ZN8Fl_Table10row_headerEi @2432
    _ZN8Fl_Table10row_headerEv @2433
    _ZN8Fl_Table10row_heightEi @2434
    _ZN8Fl_Table10row_heightEii @2435
    _ZN8Fl_Table10row_resizeEi @2436
    _ZN8Fl_Table10row_resizeEv @2437
    _ZN8Fl_Table11damage_zoneEiiiiii @2438
    _ZN8Fl_Table11do_callbackENS_12TableContextEii @2439
    _ZN8Fl_Table11is_selectedEii @2440
    _ZN8Fl_Table11move_cursorEii @2441
    _ZN8Fl_Table12_redraw_cellENS_12TableContextEii @2442
    _ZN8Fl_Table12callback_colEv @2443
    _ZN8Fl_Table12callback_rowEv @2444
    _ZN8Fl_Table12col_positionEi @2445
    _ZN8Fl_Table12col_positionEv @2446
    _ZN8Fl_Table12redraw_rangeEiiii @2447
    _ZN8Fl_Table12row_positionEi @2448
    _ZN8Fl_Table12row_positionEv @2449
    _ZN8Fl_Table13_auto_drag_cbEv @2450
    _ZN8Fl_Table13change_cursorE9Fl_Cursor @2451
    _ZN8Fl_Table13col_width_allEi @2452
    _ZN8Fl_Table13cursor2rowcolERiS0_RNS_10ResizeFlagE @2453
    _ZN8Fl_Table13get_selectionERiS0_S0_S0_ @2454
    _ZN8Fl_Table13inherits_fromEPKc @2455
    _ZN8Fl_Table13row_col_clampENS_12TableContextERiS1_ @2456
    _ZN8Fl_Table13set_selectionEiiii @2457
    _ZN8Fl_Table13table_resizedEv @2458
    _ZN8Fl_Table13visible_cellsERiS0_S0_S0_ @2459
    _ZN8Fl_Table14_auto_drag_cb2EPv @2460
    _ZN8Fl_Table14col_resize_minEi @2461
    _ZN8Fl_Table14col_resize_minEv @2462
    _ZN8Fl_Table14row_height_allEi @2463
    _ZN8Fl_Table14row_resize_minEi @2464
    _ZN8Fl_Table14row_resize_minEv @2465
    _ZN8Fl_Table14table_scrolledEv @2466
    _ZN8Fl_Table15_stop_auto_dragEv @2467
    _ZN8Fl_Table15cheap_rtti_infoEv @2468
    _ZN8Fl_Table16_start_auto_dragEv @2469
    _ZN8Fl_Table16callback_contextEv @2470
    _ZN8Fl_Table16col_header_colorEj @2471
    _ZN8Fl_Table16col_header_colorEv @2472
    _ZN8Fl_Table16row_header_colorEj @2473
    _ZN8Fl_Table16row_header_colorEv @2474
    _ZN8Fl_Table16row_header_widthEi @2475
    _ZN8Fl_Table16row_header_widthEv @2476
    _ZN8Fl_Table17col_header_heightEi @2477
    _ZN8Fl_Table17col_header_heightEv @2478
    _ZN8Fl_Table17recalc_dimensionsEv @2479
    _ZN8Fl_Table19col_scroll_positionEi @2480
    _ZN8Fl_Table19row_scroll_positionEi @2481
    _ZN8Fl_Table21is_interactive_resizeEv @2482
    _ZN8Fl_Table3addEP9Fl_Widget @2483
    _ZN8Fl_Table3endEv @2484
    _ZN8Fl_Table4colsEi @2485
    _ZN8Fl_Table4colsEv @2486
    _ZN8Fl_Table4drawEv @2487
    _ZN8Fl_Table4rowsEi @2488
    _ZN8Fl_Table4rowsEv @2489
    _ZN8Fl_Table5beginEv @2490
    _ZN8Fl_Table5clearEv @2491
    _ZN8Fl_Table6handleEi @2492
    _ZN8Fl_Table6insertER9Fl_WidgetPS0_ @2493
    _ZN8Fl_Table6insertER9Fl_Widgeti @2494
    _ZN8Fl_Table6removeER9Fl_Widget @2495
    _ZN8Fl_Table6resizeEiiii @2496
    _ZN8Fl_Table7classIdEv @2497
    _ZN8Fl_Table7top_rowEi @2498
    _ZN8Fl_Table7top_rowEv @2499
    _ZN8Fl_Table9IntVector4sizeEv @2500
    _ZN8Fl_Table9IntVectorixEi @2501
    _ZN8Fl_Table9col_widthEi @2502
    _ZN8Fl_Table9col_widthEii @2503
    _ZN8Fl_Table9draw_cellENS_12TableContextEiiiiii @2504
    _ZN8Fl_Table9find_cellENS_12TableContextEiiRiS1_S1_S1_ @2505
    _ZN8Fl_Table9scroll_cbEP9Fl_WidgetPv @2506
    _ZN8Fl_Table9table_boxE10Fl_Boxtype @2507
    _ZN8Fl_Table9table_boxEv @2508
    _ZN8Fl_TableC1EiiiiPKc @2509
    _ZN8Fl_TableC2EiiiiPKc @2510
    _ZN8Fl_TableD0Ev @2511
    _ZN8Fl_TableD1Ev @2512
    _ZN8Fl_TableD2Ev @2513
    _ZN8Flv_List10bottom_rowEv @2514
    _ZN8Flv_List10max_clicksEh @2515
    _ZN8Flv_List10max_clicksEv @2516
    _ZN8Flv_List10row_footerEv @2517
    _ZN8Flv_List10row_headerEv @2518
    _ZN8Flv_List10row_heightEi @2519
    _ZN8Flv_List10row_heightEii @2520
    _ZN8Flv_List10row_offsetEi @2521
    _ZN8Flv_List10row_offsetEv @2522
    _ZN8Flv_List10start_drawERiS0_S0_S0_S0_ @2523
    _ZN8Flv_List10start_editEv @2524
    _ZN8Flv_List11callback_onEi @2525
    _ZN8Flv_List11cancel_editEv @2526
    _ZN8Flv_List11client_areaERiS0_S0_S0_ @2527
    _ZN8Flv_List11draw_borderER9Flv_StyleRiS2_S2_S2_ @2528
    _ZN8Flv_List11feature_addEt @2529
    _ZN8Flv_List11full_resizeEv @2530
    _ZN8Flv_List11load_editorEP9Fl_Widgetii @2531
    _ZN8Flv_List11row_dividerEv @2532
    _ZN8Flv_List11save_editorEP9Fl_Widgetii @2533
    _ZN8Flv_List12check_cursorEv @2534
    _ZN8Flv_List12check_resizeEv @2535
    _ZN8Flv_List12clear_clicksEv @2536
    _ZN8Flv_List12feature_testEt @2537
    _ZN8Flv_List12multi_selectEv @2538
    _ZN8Flv_List12row_selectedEi @2539
    _ZN8Flv_List13callback_whenEi @2540
    _ZN8Flv_List13callback_whenEv @2541
    _ZN8Flv_List13has_scrollbarEh @2542
    _ZN8Flv_List13has_scrollbarEv @2543
    _ZN8Flv_List13row_resizableEbi @2544
    _ZN8Flv_List13row_resizableEi @2545
    _ZN8Flv_List13rows_per_pageEi @2546
    _ZN8Flv_List13rows_per_pageEv @2547
    _ZN8Flv_List13select_lockedEb @2548
    _ZN8Flv_List13select_lockedEv @2549
    _ZN8Flv_List13switch_editorEi @2550
    _ZN8Flv_List14feature_removeEt @2551
    _ZN8Flv_List14persist_selectEv @2552
    _ZN8Flv_List14update_top_rowEi @2553
    _ZN8Flv_List15draw_scrollbarsERiS0_S0_S0_ @2554
    _ZN8Flv_List15get_cell_boundsERiS0_S0_S0_ii @2555
    _ZN8Flv_List15position_editorEP9Fl_WidgetiiiiR9Flv_Style @2556
    _ZN8Flv_List15scrollbar_widthEi @2557
    _ZN8Flv_List15scrollbar_widthEv @2558
    _ZN8Flv_List16dead_space_colorERj @2559
    _ZN8Flv_List16select_start_rowEi @2560
    _ZN8Flv_List16select_start_rowEv @2561
    _ZN8Flv_List17add_callback_whenEi @2562
    _ZN8Flv_List17get_default_styleER9Flv_Style @2563
    _ZN8Flv_List19add_selection_styleER9Flv_Styleii @2564
    _ZN8Flv_List19clear_callback_whenEi @2565
    _ZN8Flv_List3rowEi @2566
    _ZN8Flv_List3rowEv @2567
    _ZN8Flv_List4drawEv @2568
    _ZN8Flv_List4rowsEi @2569
    _ZN8Flv_List4rowsEv @2570
    _ZN8Flv_List6clicksEv @2571
    _ZN8Flv_List6editorEv @2572
    _ZN8Flv_List6handleEi @2573
    _ZN8Flv_List7featureEt @2574
    _ZN8Flv_List7featureEv @2575
    _ZN8Flv_List7get_rowEii @2576
    _ZN8Flv_List7top_rowEi @2577
    _ZN8Flv_List7top_rowEv @2578
    _ZN8Flv_List8draw_rowEiRiS0_S0_S0_i @2579
    _ZN8Flv_List8end_editEv @2580
    _ZN8Flv_List8move_rowEi @2581
    _ZN8Flv_List9edit_whenEi @2582
    _ZN8Flv_List9edit_whenEv @2583
    _ZN8Flv_List9get_styleER9Flv_Styleii @2584
    _ZN8Flv_List9page_sizeEv @2585
    _ZN8Flv_List9row_widthEi @2586
    _ZN8Flv_List9row_widthEv @2587
    _ZN8Flv_List9why_eventEi @2588
    _ZN8Flv_List9why_eventEv @2589
    _ZN8Flv_ListC1EiiiiPKc @2590
    _ZN8Flv_ListC2EiiiiPKc @2591
    _ZN8Flv_ListD0Ev @2592
    _ZN8Flv_ListD1Ev @2593
    _ZN8Flv_ListD2Ev @2594
    _ZN9ColorChip4drawEv @2595
    _ZN9ColorChipD0Ev @2596
    _ZN9ColorChipD1Ev @2597
    _ZN9ColorMenu3runEv @2598
    _ZN9ColorMenu4drawEv @2599
    _ZN9ColorMenu6handleEi @2600
    _ZN9ColorMenu7drawboxEj @2601
    _ZN9ColorMenuC1Ej @2602
    _ZN9ColorMenuC2Ej @2603
    _ZN9ColorMenuD0Ev @2604
    _ZN9ColorMenuD1Ev @2605
    _ZN9Fl_Bitmap13inherits_fromEPKc @2606
    _ZN9Fl_Bitmap15cheap_rtti_infoEv @2607
    _ZN9Fl_Bitmap19generic_device_drawEiiiiii @2608
    _ZN9Fl_Bitmap4copyEii @2609
    _ZN9Fl_Bitmap4copyEv @2610
    _ZN9Fl_Bitmap4drawEii @2611
    _ZN9Fl_Bitmap4drawEiiiiii @2612
    _ZN9Fl_Bitmap5labelEP12Fl_Menu_Item @2613
    _ZN9Fl_Bitmap5labelEP9Fl_Widget @2614
    _ZN9Fl_Bitmap7classIdEv @2615
    _ZN9Fl_Bitmap7uncacheEv @2616
    _ZN9Fl_BitmapC1EPKcii @2617
    _ZN9Fl_BitmapC1EPKhii @2618
    _ZN9Fl_BitmapD0Ev @2619
    _ZN9Fl_BitmapD1Ev @2620
    _ZN9Fl_BitmapD2Ev @2621
    _ZN9Fl_Button10down_colorEj @2622
    _ZN9Fl_Button13inherits_fromEPKc @2623
    _ZN9Fl_Button15cheap_rtti_infoEv @2624
    _ZN9Fl_Button3setEv @2625
    _ZN9Fl_Button4drawEv @2626
    _ZN9Fl_Button5clearEv @2627
    _ZN9Fl_Button5valueEi @2628
    _ZN9Fl_Button6handleEi @2629
    _ZN9Fl_Button7classIdEv @2630
    _ZN9Fl_Button7setonlyEv @2631
    _ZN9Fl_Button8down_boxE10Fl_Boxtype @2632
    _ZN9Fl_Button8shortcutEPKc @2633
    _ZN9Fl_Button8shortcutEi @2634
    _ZN9Fl_ButtonC1EiiiiPKc @2635
    _ZN9Fl_ButtonC2EiiiiPKc @2636
    _ZN9Fl_ButtonD0Ev @2637
    _ZN9Fl_ButtonD1Ev @2638
    _ZN9Fl_ButtonD2Ev @2639
    _ZN9Fl_Choice13inherits_fromEPKc @2640
    _ZN9Fl_Choice15cheap_rtti_infoEv @2641
    _ZN9Fl_Choice4drawEv @2642
    _ZN9Fl_Choice5valueEPK12Fl_Menu_Item @2643
    _ZN9Fl_Choice5valueEi @2644
    _ZN9Fl_Choice6handleEi @2645
    _ZN9Fl_Choice7classIdEv @2646
    _ZN9Fl_ChoiceC1EiiiiPKc @2647
    _ZN9Fl_ChoiceC2EiiiiPKc @2648
    _ZN9Fl_ChoiceD0Ev @2649
    _ZN9Fl_ChoiceD1Ev @2650
    _ZN9Fl_Device10begin_lineEv @2651
    _ZN9Fl_Device10begin_loopEv @2652
    _ZN9Fl_Device10draw_imageEPFvPviiiPhES0_iiiii @2653
    _ZN9Fl_Device10draw_imageEPKhiiiiii @2654
    _ZN9Fl_Device10end_pointsEv @2655
    _ZN9Fl_Device10line_styleEiiPc @2656
    _ZN9Fl_Device11end_polygonEv @2657
    _ZN9Fl_Device11not_clippedEiiii @2658
    _ZN9Fl_Device11set_currentEv @2659
    _ZN9Fl_Device12begin_pointsEv @2660
    _ZN9Fl_Device12push_no_clipEv @2661
    _ZN9Fl_Device13begin_polygonEv @2662
    _ZN9Fl_Device14display_deviceEv @2663
    _ZN9Fl_Device15draw_image_monoEPFvPviiiPhES0_iiiii @2664
    _ZN9Fl_Device15draw_image_monoEPKhiiiiii @2665
    _ZN9Fl_Device18transformed_vertexEdd @2666
    _ZN9Fl_Device19end_complex_polygonEv @2667
    _ZN9Fl_Device21begin_complex_polygonEv @2668
    _ZN9Fl_Device3arcEddddd @2669
    _ZN9Fl_Device3arcEiiiidd @2670
    _ZN9Fl_Device3gapEv @2671
    _ZN9Fl_Device3pieEiiiidd @2672
    _ZN9Fl_Device4drawEP12Fl_RGB_Imageiiiiii @2673
    _ZN9Fl_Device4drawEP9Fl_Bitmapiiiiii @2674
    _ZN9Fl_Device4drawEP9Fl_Pixmapiiiiii @2675
    _ZN9Fl_Device4drawEPKciii @2676
    _ZN9Fl_Device4drawEiPKciii @2677
    _ZN9Fl_Device4fontEii @2678
    _ZN9Fl_Device4lineEiiii @2679
    _ZN9Fl_Device4lineEiiiiii @2680
    _ZN9Fl_Device4loopEiiiiii @2681
    _ZN9Fl_Device4loopEiiiiiiii @2682
    _ZN9Fl_Device4rectEiiii @2683
    _ZN9Fl_Device4typeEv @2684
    _ZN9Fl_Device5colorEhhh @2685
    _ZN9Fl_Device5colorEj @2686
    _ZN9Fl_Device5curveEdddddddd @2687
    _ZN9Fl_Device5pointEii @2688
    _ZN9Fl_Device5rectfEiiii @2689
    _ZN9Fl_Device6circleEddd @2690
    _ZN9Fl_Device6vertexEdd @2691
    _ZN9Fl_Device6xylineEiii @2692
    _ZN9Fl_Device6xylineEiiii @2693
    _ZN9Fl_Device6xylineEiiiii @2694
    _ZN9Fl_Device6yxlineEiii @2695
    _ZN9Fl_Device6yxlineEiiii @2696
    _ZN9Fl_Device6yxlineEiiiii @2697
    _ZN9Fl_Device7currentEv @2698
    _ZN9Fl_Device7polygonEiiiiii @2699
    _ZN9Fl_Device7polygonEiiiiiiii @2700
    _ZN9Fl_Device8clip_boxEiiiiRiS0_S0_S0_ @2701
    _ZN9Fl_Device8end_lineEv @2702
    _ZN9Fl_Device8end_loopEv @2703
    _ZN9Fl_Device8pop_clipEv @2704
    _ZN9Fl_Device9push_clipEiiii @2705
    _ZN9Fl_DeviceD0Ev @2706
    _ZN9Fl_DeviceD1Ev @2707
    _ZN9Fl_Input_10handletextEiiiii @2708
    _ZN9Fl_Input_10input_typeEi @2709
    _ZN9Fl_Input_11up_down_posE @2710 DATA
    _ZN9Fl_Input_11was_up_downE @2711 DATA
    _ZN9Fl_Input_12cursor_colorEj @2712
    _ZN9Fl_Input_12handle_mouseEiiiii @2713
    _ZN9Fl_Input_12linesPerPageEv @2714
    _ZN9Fl_Input_12maximum_sizeEi @2715
    _ZN9Fl_Input_12static_valueEPKc @2716
    _ZN9Fl_Input_12static_valueEPKci @2717
    _ZN9Fl_Input_13inherits_fromEPKc @2718
    _ZN9Fl_Input_13put_in_bufferEi @2719
    _ZN9Fl_Input_14minimal_updateEi @2720
    _ZN9Fl_Input_14minimal_updateEii @2721
    _ZN9Fl_Input_15cheap_rtti_infoEv @2722
    _ZN9Fl_Input_16up_down_positionEii @2723
    _ZN9Fl_Input_17maybe_do_callbackEv @2724
    _ZN9Fl_Input_3cutEi @2725
    _ZN9Fl_Input_3cutEii @2726
    _ZN9Fl_Input_3cutEv @2727
    _ZN9Fl_Input_4copyEi @2728
    _ZN9Fl_Input_4markEi @2729
    _ZN9Fl_Input_4sizeEii @2730
    _ZN9Fl_Input_4undoEv @2731
    _ZN9Fl_Input_4wrapEi @2732
    _ZN9Fl_Input_5valueEPKc @2733
    _ZN9Fl_Input_5valueEPKci @2734
    _ZN9Fl_Input_6insertEPKci @2735
    _ZN9Fl_Input_6resizeEiiii @2736
    _ZN9Fl_Input_7classIdEv @2737
    _ZN9Fl_Input_7replaceEiiPKci @2738
    _ZN9Fl_Input_8drawtextEiiii @2739
    _ZN9Fl_Input_8positionEi @2740
    _ZN9Fl_Input_8positionEii @2741
    _ZN9Fl_Input_8readonlyEi @2742
    _ZN9Fl_Input_8shortcutEi @2743
    _ZN9Fl_Input_8textfontEi @2744
    _ZN9Fl_Input_8textsizeEi @2745
    _ZN9Fl_Input_9copy_cutsEv @2746
    _ZN9Fl_Input_9textcolorEj @2747
    _ZN9Fl_Input_C1EiiiiPKc @2748
    _ZN9Fl_Input_C2EiiiiPKc @2749
    _ZN9Fl_Input_D0Ev @2750
    _ZN9Fl_Input_D1Ev @2751
    _ZN9Fl_Input_D2Ev @2752
    _ZN9Fl_Output13inherits_fromEPKc @2753
    _ZN9Fl_Output15cheap_rtti_infoEv @2754
    _ZN9Fl_Output7classIdEv @2755
    _ZN9Fl_Output9classNameEv @2756
    _ZN9Fl_OutputC1EiiiiPKc @2757
    _ZN9Fl_OutputC2EiiiiPKc @2758
    _ZN9Fl_OutputD0Ev @2759
    _ZN9Fl_OutputD1Ev @2760
    _ZN9Fl_OutputD2Ev @2761
    _ZN9Fl_Pixmap10desaturateEv @2762
    _ZN9Fl_Pixmap11delete_dataEv @2763
    _ZN9Fl_Pixmap13color_averageEjf @2764
    _ZN9Fl_Pixmap13inherits_fromEPKc @2765
    _ZN9Fl_Pixmap15cheap_rtti_infoEv @2766
    _ZN9Fl_Pixmap19generic_device_drawEiiiiii @2767
    _ZN9Fl_Pixmap4copyEii @2768
    _ZN9Fl_Pixmap4copyEv @2769
    _ZN9Fl_Pixmap4drawEii @2770
    _ZN9Fl_Pixmap4drawEiiiiii @2771
    _ZN9Fl_Pixmap5labelEP12Fl_Menu_Item @2772
    _ZN9Fl_Pixmap5labelEP9Fl_Widget @2773
    _ZN9Fl_Pixmap7classIdEv @2774
    _ZN9Fl_Pixmap7measureEv @2775
    _ZN9Fl_Pixmap7uncacheEv @2776
    _ZN9Fl_Pixmap8set_dataEPKPKc @2777
    _ZN9Fl_Pixmap9classNameEv @2778
    _ZN9Fl_Pixmap9copy_dataEv @2779
    _ZN9Fl_PixmapC2EPKPKc @2780
    _ZN9Fl_PixmapD0Ev @2781
    _ZN9Fl_PixmapD1Ev @2782
    _ZN9Fl_PixmapD2Ev @2783
    _ZN9Fl_PluginC1EPKcS1_ @2784
    _ZN9Fl_PluginC2EPKcS1_ @2785
    _ZN9Fl_PluginD0Ev @2786
    _ZN9Fl_PluginD1Ev @2787
    _ZN9Fl_PluginD2Ev @2788
    _ZN9Fl_Roller13inherits_fromEPKc @2789
    _ZN9Fl_Roller15cheap_rtti_infoEv @2790
    _ZN9Fl_Roller4drawEv @2791
    _ZN9Fl_Roller6handleEi @2792
    _ZN9Fl_Roller7classIdEv @2793
    _ZN9Fl_RollerC1EiiiiPKc @2794
    _ZN9Fl_RollerC2EiiiiPKc @2795
    _ZN9Fl_RollerD0Ev @2796
    _ZN9Fl_RollerD1Ev @2797
    _ZN9Fl_Scroll12scrollbar_cbEP9Fl_WidgetPv @2798
    _ZN9Fl_Scroll13hscrollbar_cbEP9Fl_WidgetPv @2799
    _ZN9Fl_Scroll13inherits_fromEPKc @2800
    _ZN9Fl_Scroll14scrollbar_sizeEi @2801
    _ZN9Fl_Scroll15cheap_rtti_infoEv @2802
    _ZN9Fl_Scroll17recalc_scrollbarsERNS_10ScrollInfoE @2803
    _ZN9Fl_Scroll19fix_scrollbar_orderEv @2804
    _ZN9Fl_Scroll4bboxERiS0_S0_S0_ @2805
    _ZN9Fl_Scroll4drawEv @2806
    _ZN9Fl_Scroll5clearEv @2807
    _ZN9Fl_Scroll6handleEi @2808
    _ZN9Fl_Scroll6resizeEiiii @2809
    _ZN9Fl_Scroll7classIdEv @2810
    _ZN9Fl_Scroll9draw_clipEPviiii @2811
    _ZN9Fl_Scroll9scroll_toEii @2812
    _ZN9Fl_ScrollC1EiiiiPKc @2813
    _ZN9Fl_ScrollC2EiiiiPKc @2814
    _ZN9Fl_ScrollD0Ev @2815
    _ZN9Fl_ScrollD1Ev @2816
    _ZN9Fl_Slider10_Fl_SliderEv @2817
    _ZN9Fl_Slider11scrollvalueEiiii @2818
    _ZN9Fl_Slider11slider_sizeEd @2819
    _ZN9Fl_Slider13inherits_fromEPKc @2820
    _ZN9Fl_Slider15cheap_rtti_infoEv @2821
    _ZN9Fl_Slider4drawEiiii @2822
    _ZN9Fl_Slider4drawEv @2823
    _ZN9Fl_Slider6boundsEdd @2824
    _ZN9Fl_Slider6handleEi @2825
    _ZN9Fl_Slider6handleEiiiii @2826
    _ZN9Fl_Slider6sliderE10Fl_Boxtype @2827
    _ZN9Fl_Slider7classIdEv @2828
    _ZN9Fl_Slider7draw_bgEiiii @2829
    _ZN9Fl_Slider9classNameEv @2830
    _ZN9Fl_SliderC1EhiiiiPKc @2831
    _ZN9Fl_SliderC1EiiiiPKc @2832
    _ZN9Fl_SliderC2EhiiiiPKc @2833
    _ZN9Fl_SliderC2EiiiiPKc @2834
    _ZN9Fl_SliderD0Ev @2835
    _ZN9Fl_SliderD1Ev @2836
    _ZN9Fl_SliderD2Ev @2837
    _ZN9Fl_Widget10clear_flagEj @2838
    _ZN9Fl_Widget10copy_labelEPKc @2839
    _ZN9Fl_Widget10deactivateEv @2840
    _ZN9Fl_Widget10draw_focusEv @2841
    _ZN9Fl_Widget10labelcolorEj @2842
    _ZN9Fl_Widget10set_outputEv @2843
    _ZN9Fl_Widget10take_focusEv @2844
    _ZN9Fl_Widget11do_callbackEPS_Pv @2845
    _ZN9Fl_Widget11do_callbackEPS_l @2846
    _ZN9Fl_Widget11do_callbackEv @2847
    _ZN9Fl_Widget11set_changedEv @2848
    _ZN9Fl_Widget11set_visibleEv @2849
    _ZN9Fl_Widget12as_gl_windowEv @2850
    _ZN9Fl_Widget12clear_damageEh @2851
    _ZN9Fl_Widget12clear_outputEv @2852
    _ZN9Fl_Widget12redraw_labelEv @2853
    _ZN9Fl_Widget13clear_changedEv @2854
    _ZN9Fl_Widget13clear_visibleEv @2855
    _ZN9Fl_Widget13damage_resizeEiiii @2856
    _ZN9Fl_Widget13inherits_fromEPKc @2857
    _ZN9Fl_Widget13measure_labelERiS0_ @2858
    _ZN9Fl_Widget13test_shortcutEPKc @2859
    _ZN9Fl_Widget13test_shortcutEv @2860
    _ZN9Fl_Widget13visible_focusEi @2861
    _ZN9Fl_Widget13visible_focusEv @2862
    _ZN9Fl_Widget14label_shortcutEPKc @2863
    _ZN9Fl_Widget15cheap_rtti_infoEv @2864
    _ZN9Fl_Widget15selection_colorEj @2865
    _ZN9Fl_Widget16default_callbackEPS_Pv @2866
    _ZN9Fl_Widget17set_visible_focusEv @2867
    _ZN9Fl_Widget19clear_visible_focusEv @2868
    _ZN9Fl_Widget3boxE10Fl_Boxtype @2869
    _ZN9Fl_Widget4hideEv @2870
    _ZN9Fl_Widget4showEv @2871
    _ZN9Fl_Widget4sizeEii @2872
    _ZN9Fl_Widget4typeEh @2873
    _ZN9Fl_Widget4whenEh @2874
    _ZN9Fl_Widget5alignEj @2875
    _ZN9Fl_Widget5colorEj @2876
    _ZN9Fl_Widget5colorEjj @2877
    _ZN9Fl_Widget5imageEP8Fl_Image @2878
    _ZN9Fl_Widget5imageEv @2879
    _ZN9Fl_Widget5labelE12Fl_LabeltypePKc @2880
    _ZN9Fl_Widget5labelEPKc @2881
    _ZN9Fl_Widget6damageEh @2882
    _ZN9Fl_Widget6damageEhiiii @2883
    _ZN9Fl_Widget6handleEi @2884
    _ZN9Fl_Widget6parentEP8Fl_Group @2885
    _ZN9Fl_Widget6redrawEv @2886
    _ZN9Fl_Widget6resizeEiiii @2887
    _ZN9Fl_Widget7classIdEv @2888
    _ZN9Fl_Widget7deimageEP8Fl_Image @2889
    _ZN9Fl_Widget7deimageEv @2890
    _ZN9Fl_Widget7tooltipEPKc @2891
    _ZN9Fl_Widget8activateEv @2892
    _ZN9Fl_Widget8argumentEl @2893
    _ZN9Fl_Widget8as_groupEv @2894
    _ZN9Fl_Widget8callbackEPFvPS_E @2895
    _ZN9Fl_Widget8callbackEPFvPS_PvES1_ @2896
    _ZN9Fl_Widget8positionEii @2897
    _ZN9Fl_Widget8set_flagEj @2898
    _ZN9Fl_Widget8textfontEi @2899
    _ZN9Fl_Widget8textsizeEi @2900
    _ZN9Fl_Widget9as_windowEv @2901
    _ZN9Fl_Widget9labelfontEi @2902
    _ZN9Fl_Widget9labelsizeEi @2903
    _ZN9Fl_Widget9labeltypeE12Fl_Labeltype @2904
    _ZN9Fl_Widget9user_dataEPv @2905
    _ZN9Fl_WidgetC1EiiiiPKc @2906
    _ZN9Fl_WidgetC2EiiiiPKc @2907
    _ZN9Fl_WidgetD0Ev @2908
    _ZN9Fl_WidgetD1Ev @2909
    _ZN9Fl_WidgetD2Ev @2910
    _ZN9Fl_Window10_Fl_WindowEv @2911
    _ZN9Fl_Window10copy_labelEPKc @2912
    _ZN9Fl_Window10fullscreenEv @2913
    _ZN9Fl_Window10size_rangeEiiiiiii @2914
    _ZN9Fl_Window11size_range_Ev @2915
    _ZN9Fl_Window12clear_borderEv @2916
    _ZN9Fl_Window12make_currentEv @2917
    _ZN9Fl_Window12set_overrideEv @2918
    _ZN9Fl_Window13free_positionEv @2919
    _ZN9Fl_Window13inherits_fromEPKc @2920
    _ZN9Fl_Window13set_non_modalEv @2921
    _ZN9Fl_Window14default_cursorE9Fl_Cursorjj @2922
    _ZN9Fl_Window14fullscreen_offEiiii @2923
    _ZN9Fl_Window15cheap_rtti_infoEv @2924
    _ZN9Fl_Window15set_menu_windowEv @2925
    _ZN9Fl_Window16default_callbackEPS_Pv @2926
    _ZN9Fl_Window18set_tooltip_windowEv @2927
    _ZN9Fl_Window4drawEv @2928
    _ZN9Fl_Window4hideEv @2929
    _ZN9Fl_Window4iconEPKv @2930
    _ZN9Fl_Window4showEiPPc @2931
    _ZN9Fl_Window4showEv @2932
    _ZN9Fl_Window5flushEv @2933
    _ZN9Fl_Window5labelEPKc @2934
    _ZN9Fl_Window5labelEPKcS1_ @2935
    _ZN9Fl_Window5shownEv @2936
    _ZN9Fl_Window6borderEi @2937
    _ZN9Fl_Window6cursorE9Fl_Cursorjj @2938
    _ZN9Fl_Window6handleEi @2939
    _ZN9Fl_Window6resizeEiiii @2940
    _ZN9Fl_Window6xclassEPKc @2941
    _ZN9Fl_Window7classIdEv @2942
    _ZN9Fl_Window7currentEv @2943
    _ZN9Fl_Window7hotspotEPK9Fl_Widgeti @2944
    _ZN9Fl_Window7hotspotEiii @2945
    _ZN9Fl_Window7iconizeEv @2946
    _ZN9Fl_Window8current_E @2947 DATA
    _ZN9Fl_Window9as_windowEv @2948
    _ZN9Fl_Window9iconlabelEPKc @2949
    _ZN9Fl_Window9set_modalEv @2950
    _ZN9Fl_WindowC1EiiPKc @2951
    _ZN9Fl_WindowC1EiiiiPKc @2952
    _ZN9Fl_WindowC2EiiPKc @2953
    _ZN9Fl_WindowC2EiiiiPKc @2954
    _ZN9Fl_WindowD0Ev @2955
    _ZN9Fl_WindowD1Ev @2956
    _ZN9Fl_WindowD2Ev @2957
    _ZN9Fl_Wizard13inherits_fromEPKc @2958
    _ZN9Fl_Wizard15cheap_rtti_infoEv @2959
    _ZN9Fl_Wizard4drawEv @2960
    _ZN9Fl_Wizard4nextEv @2961
    _ZN9Fl_Wizard4prevEv @2962
    _ZN9Fl_Wizard5valueEP9Fl_Widget @2963
    _ZN9Fl_Wizard5valueEv @2964
    _ZN9Fl_Wizard7classIdEv @2965
    _ZN9Fl_WizardC1EiiiiPKc @2966
    _ZN9Fl_WizardC2EiiiiPKc @2967
    _ZN9Fl_WizardD0Ev @2968
    _ZN9Fl_WizardD1Ev @2969
    _ZN9Flv_Style10backgroundEj @2970
    _ZN9Flv_Style10clear_fontEv @2971
    _ZN9Flv_Style10foregroundEj @2972
    _ZN9Flv_Style11all_definedEv @2973
    _ZN9Flv_Style11clear_alignEv @2974
    _ZN9Flv_Style11clear_frameEv @2975
    _ZN9Flv_Style11clear_widthEv @2976
    _ZN9Flv_Style12border_colorEj @2977
    _ZN9Flv_Style12clear_borderEv @2978
    _ZN9Flv_Style12clear_editorEv @2979
    _ZN9Flv_Style12clear_heightEv @2980
    _ZN9Flv_Style12clear_lockedEv @2981
    _ZN9Flv_Style14border_spacingEi @2982
    _ZN9Flv_Style14clear_x_marginEv @2983
    _ZN9Flv_Style14clear_y_marginEv @2984
    _ZN9Flv_Style15clear_font_sizeEv @2985
    _ZN9Flv_Style15clear_resizableEv @2986
    _ZN9Flv_Style16clear_backgroundEv @2987
    _ZN9Flv_Style16clear_foregroundEv @2988
    _ZN9Flv_Style18clear_border_colorEv @2989
    _ZN9Flv_Style20clear_border_spacingEv @2990
    _ZN9Flv_Style4fontERKi @2991
    _ZN9Flv_Style5alignERKj @2992
    _ZN9Flv_Style5frameERK10Fl_Boxtype @2993
    _ZN9Flv_Style5widthEi @2994
    _ZN9Flv_Style6borderEi @2995
    _ZN9Flv_Style6editorEP9Fl_Widget @2996
    _ZN9Flv_Style6heightEi @2997
    _ZN9Flv_Style6lockedEb @2998
    _ZN9Flv_Style8x_marginEi @2999
    _ZN9Flv_Style8y_marginEi @3000
    _ZN9Flv_Style9all_clearEv @3001
    _ZN9Flv_Style9clear_allEv @3002
    _ZN9Flv_Style9font_sizeEi @3003
    _ZN9Flv_Style9resizableEb @3004
    _ZN9Flv_StyleC1Ei @3005
    _ZN9Flv_StyleC1Ev @3006
    _ZN9Flv_StyleC2Ei @3007
    _ZN9Flv_StyleC2Ev @3008
    _ZN9Flv_StyleaSERKS_ @3009
    _ZN9Flv_Table10col_footerEv @3010
    _ZN9Flv_Table10col_headerEv @3011
    _ZN9Flv_Table10select_rowEv @3012
    _ZN9Flv_Table10start_editEv @3013
    _ZN9Flv_Table11cancel_editEv @3014
    _ZN9Flv_Table11col_dividerEv @3015
    _ZN9Flv_Table12check_cursorEv @3016
    _ZN9Flv_Table12check_resizeEv @3017
    _ZN9Flv_Table12col_selectedEi @3018
    _ZN9Flv_Table12update_widthEv @3019
    _ZN9Flv_Table13cell_selectedEii @3020
    _ZN9Flv_Table13col_resizableEbi @3021
    _ZN9Flv_Table13col_resizableEi @3022
    _ZN9Flv_Table13move_on_enterEi @3023
    _ZN9Flv_Table13switch_editorEii @3024
    _ZN9Flv_Table15adjust_for_cellEv @3025
    _ZN9Flv_Table15get_cell_boundsERiS0_S0_S0_ii @3026
    _ZN9Flv_Table15internal_handleEi @3027
    _ZN9Flv_Table16select_start_colEi @3028
    _ZN9Flv_Table16select_start_colEv @3029
    _ZN9Flv_Table19add_selection_styleER9Flv_Styleii @3030
    _ZN9Flv_Table3colEi @3031
    _ZN9Flv_Table3colEv @3032
    _ZN9Flv_Table3rowEi @3033
    _ZN9Flv_Table3rowEv @3034
    _ZN9Flv_Table4colsEi @3035
    _ZN9Flv_Table4colsEv @3036
    _ZN9Flv_Table4drawEv @3037
    _ZN9Flv_Table6handleEi @3038
    _ZN9Flv_Table7buttonsEi @3039
    _ZN9Flv_Table7buttonsEv @3040
    _ZN9Flv_Table7get_colEii @3041
    _ZN9Flv_Table8draw_rowEiRiS0_S0_S0_i @3042
    _ZN9Flv_Table8end_editEv @3043
    _ZN9Flv_Table8move_colEi @3044
    _ZN9Flv_Table8move_rowEi @3045
    _ZN9Flv_Table9cell_areaERiS0_S0_S0_ @3046
    _ZN9Flv_Table9col_widthEi @3047
    _ZN9Flv_Table9col_widthEii @3048
    _ZN9Flv_Table9draw_cellEiRiS0_S0_S0_ii @3049
    _ZN9Flv_Table9edit_whenEi @3050
    _ZN9Flv_Table9edit_whenEv @3051
    _ZN9Flv_Table9get_styleER9Flv_Styleii @3052
    _ZN9Flv_TableC1EiiiiPKc @3053
    _ZN9Flv_TableC2EiiiiPKc @3054
    _ZN9Flv_TableD0Ev @3055
    _ZN9Flv_TableD1Ev @3056
    _ZN9Flv_TableD2Ev @3057
    _ZN9menustate9is_insideEii @3058
    _ZN9menutitle4drawEv @3059
    _ZN9menutitleC1EiiiiPK12Fl_Menu_Item @3060
    _ZN9menutitleC2EiiiiPK12Fl_Menu_Item @3061
    _ZN9menutitleD0Ev @3062
    _ZN9menutitleD1Ev @3063
    _ZNK10Fl_Browser10item_firstEv @3064
    _ZNK10Fl_Browser10item_widthEPv @3065
    _ZNK10Fl_Browser11column_charEv @3066
    _ZNK10Fl_Browser11format_charEv @3067
    _ZNK10Fl_Browser11full_heightEv @3068
    _ZNK10Fl_Browser11incr_heightEv @3069
    _ZNK10Fl_Browser11item_heightEPv @3070
    _ZNK10Fl_Browser13column_widthsEv @3071
    _ZNK10Fl_Browser13item_selectedEPv @3072
    _ZNK10Fl_Browser4dataEi @3073
    _ZNK10Fl_Browser4iconEi @3074
    _ZNK10Fl_Browser4sizeEv @3075
    _ZNK10Fl_Browser4textEi @3076
    _ZNK10Fl_Browser5valueEv @3077
    _ZNK10Fl_Browser6linenoEPv @3078
    _ZNK10Fl_Browser7item_atEi @3079
    _ZNK10Fl_Browser7toplineEv @3080
    _ZNK10Fl_Browser7visibleEi @3081
    _ZNK10Fl_Browser8selectedEi @3082
    _ZNK10Fl_Browser9displayedEi @3083
    _ZNK10Fl_Browser9find_lineEi @3084
    _ZNK10Fl_Browser9item_drawEPviiii @3085
    _ZNK10Fl_Browser9item_lastEv @3086
    _ZNK10Fl_Browser9item_nextEPv @3087
    _ZNK10Fl_Browser9item_prevEPv @3088
    _ZNK10Fl_Browser9item_textEPv @3089
    _ZNK10Fl_Counter4stepEv @3090
    _ZNK10Fl_Counter8textfontEv @3091
    _ZNK10Fl_Counter8textsizeEv @3092
    _ZNK10Fl_Counter9textcolorEv @3093
    _ZNK10Fl_Spinner4stepEv @3094
    _ZNK10Fl_Spinner4typeEv @3095
    _ZNK10Fl_Spinner5valueEv @3096
    _ZNK10Fl_Spinner7maximumEv @3097
    _ZNK10Fl_Spinner7minimumEv @3098
    _ZNK10Fl_Spinner8textfontEv @3099
    _ZNK10Fl_Spinner8textsizeEv @3100
    _ZNK10Fl_Spinner9textcolorEv @3101
    _ZNK10Flv_CStyle1xEv @3102
    _ZNK10Flv_CStyle1yEv @3103
    _ZNK11Fl_Adjuster4softEv @3104
    _ZNK11Fl_Browser_10full_widthEv @3105
    _ZNK11Fl_Browser_11full_heightEv @3106
    _ZNK11Fl_Browser_11incr_heightEv @3107
    _ZNK11Fl_Browser_13has_scrollbarEv @3108
    _ZNK11Fl_Browser_13item_selectedEPv @3109
    _ZNK11Fl_Browser_14scrollbar_sizeEv @3110
    _ZNK11Fl_Browser_15scrollbar_widthEv @3111
    _ZNK11Fl_Browser_17item_quick_heightEPv @3112
    _ZNK11Fl_Browser_4bboxERiS0_S0_S0_ @3113
    _ZNK11Fl_Browser_7item_atEi @3114
    _ZNK11Fl_Browser_8leftedgeEv @3115
    _ZNK11Fl_Browser_8positionEv @3116
    _ZNK11Fl_Browser_8textfontEv @3117
    _ZNK11Fl_Browser_8textsizeEv @3118
    _ZNK11Fl_Browser_9displayedEPv @3119
    _ZNK11Fl_Browser_9hpositionEv @3120
    _ZNK11Fl_Browser_9item_lastEv @3121
    _ZNK11Fl_Browser_9item_textEPv @3122
    _ZNK11Fl_Browser_9textcolorEv @3123
    _ZNK11Fl_Progress5valueEv @3124
    _ZNK11Fl_Progress7maximumEv @3125
    _ZNK11Fl_Progress7minimumEv @3126
    _ZNK11Fl_Valuator4stepEv @3127
    _ZNK11Fl_Valuator5valueEv @3128
    _ZNK11Fl_Valuator7maximumEv @3129
    _ZNK11Fl_Valuator7minimumEv @3130
    _ZNK12Fl_Help_View14scrollbar_sizeEv @3131
    _ZNK12Fl_Help_View4sizeEv @3132
    _ZNK12Fl_Help_View5valueEv @3133
    _ZNK12Fl_Help_View7toplineEv @3134
    _ZNK12Fl_Help_View8filenameEv @3135
    _ZNK12Fl_Help_View8leftlineEv @3136
    _ZNK12Fl_Help_View8textfontEv @3137
    _ZNK12Fl_Help_View8textsizeEv @3138
    _ZNK12Fl_Help_View9directoryEv @3139
    _ZNK12Fl_Help_View9textcolorEv @3140
    _ZNK12Fl_Menu_Item11do_callbackEP9Fl_Widget @3141
    _ZNK12Fl_Menu_Item11do_callbackEP9Fl_WidgetPv @3142
    _ZNK12Fl_Menu_Item11do_callbackEP9Fl_Widgetl @3143
    _ZNK12Fl_Menu_Item13activevisibleEv @3144
    _ZNK12Fl_Menu_Item13find_shortcutEPi @3145
    _ZNK12Fl_Menu_Item13test_shortcutEv @3146
    _ZNK12Fl_Menu_Item4drawEiiiiPK8Fl_Menu_i @3147
    _ZNK12Fl_Menu_Item4nextEi @3148
    _ZNK12Fl_Menu_Item4sizeEv @3149
    _ZNK12Fl_Menu_Item5labelEv @3150
    _ZNK12Fl_Menu_Item5popupEiiPKcPKS_PK8Fl_Menu_ @3151
    _ZNK12Fl_Menu_Item5radioEv @3152
    _ZNK12Fl_Menu_Item5valueEv @3153
    _ZNK12Fl_Menu_Item6activeEv @3154
    _ZNK12Fl_Menu_Item7checkedEv @3155
    _ZNK12Fl_Menu_Item7measureEPiPK8Fl_Menu_ @3156
    _ZNK12Fl_Menu_Item7submenuEv @3157
    _ZNK12Fl_Menu_Item7visibleEv @3158
    _ZNK12Fl_Menu_Item8argumentEv @3159
    _ZNK12Fl_Menu_Item8checkboxEv @3160
    _ZNK12Fl_Menu_Item8pulldownEiiiiPKS_PK8Fl_Menu_S1_i @3161
    _ZNK12Fl_Menu_Item8shortcutEv @3162
    _ZNK12Fl_Menu_Item9labeltypeEv @3163
    _ZNK12Fl_Menu_Item9user_dataEv @3164
    _ZNK12Fl_Scrollbar5valueEv @3165
    _ZNK12Fl_Scrollbar8linesizeEv @3166
    _ZNK12Fl_Table_Row4typeEv @3167
    _ZNK12Fl_Tree_Item10labelcolorEv @3168
    _ZNK12Fl_Tree_Item11is_selectedEv @3169
    _ZNK12Fl_Tree_Item12find_clickedERK13Fl_Tree_Prefs @3170
    _ZNK12Fl_Tree_Item12has_childrenEv @3171
    _ZNK12Fl_Tree_Item12is_activatedEv @3172
    _ZNK12Fl_Tree_Item12labelbgcolorEv @3173
    _ZNK12Fl_Tree_Item12labelfgcolorEv @3174
    _ZNK12Fl_Tree_Item14event_on_labelERK13Fl_Tree_Prefs @3175
    _ZNK12Fl_Tree_Item22event_on_collapse_iconERK13Fl_Tree_Prefs @3176
    _ZNK12Fl_Tree_Item5childEi @3177
    _ZNK12Fl_Tree_Item5depthEv @3178
    _ZNK12Fl_Tree_Item5labelEv @3179
    _ZNK12Fl_Tree_Item6widgetEv @3180
    _ZNK12Fl_Tree_Item7is_openEv @3181
    _ZNK12Fl_Tree_Item7is_rootEv @3182
    _ZNK12Fl_Tree_Item8childrenEv @3183
    _ZNK12Fl_Tree_Item8is_closeEv @3184
    _ZNK12Fl_Tree_Item8usericonEv @3185
    _ZNK12Fl_Tree_Item9find_itemEPPc @3186
    _ZNK12Fl_Tree_Item9is_activeEv @3187
    _ZNK12Fl_Tree_Item9labelfontEv @3188
    _ZNK12Fl_Tree_Item9labelsizeEv @3189
    _ZNK12Fl_Tree_Item9show_selfEPKc @3190
    _ZNK12Fl_Tree_Item9user_dataEv @3191
    _ZNK13Fl_File_Input10errorcolorEv @3192
    _ZNK13Fl_File_Input8down_boxEv @3193
    _ZNK13Fl_Positioner6xvalueEv @3194
    _ZNK13Fl_Positioner6yvalueEv @3195
    _ZNK13Fl_Positioner8xmaximumEv @3196
    _ZNK13Fl_Positioner8xminimumEv @3197
    _ZNK13Fl_Positioner8ymaximumEv @3198
    _ZNK13Fl_Positioner8yminimumEv @3199
    _ZNK13Fl_Tree_Prefs10marginleftEv @3200
    _ZNK13Fl_Tree_Prefs10selectmodeEv @3201
    _ZNK13Fl_Tree_Prefs11linespacingEv @3202
    _ZNK13Fl_Tree_Prefs11selectcolorEv @3203
    _ZNK13Fl_Tree_Prefs12showcollapseEv @3204
    _ZNK13Fl_Tree_Prefs13inactivecolorEv @3205
    _ZNK13Fl_Tree_Prefs14connectorcolorEv @3206
    _ZNK13Fl_Tree_Prefs14connectorstyleEv @3207
    _ZNK13Fl_Tree_Prefs14connectorwidthEv @3208
    _ZNK13Fl_Tree_Prefs15labelmarginleftEv @3209
    _ZNK13Fl_Tree_Prefs18usericonmarginleftEv @3210
    _ZNK13Fl_Tree_Prefs22openchild_marginbottomEv @3211
    _ZNK13Fl_Tree_Prefs7bgcolorEv @3212
    _ZNK13Fl_Tree_Prefs7fgcolorEv @3213
    _ZNK13Fl_Tree_Prefs8openiconEv @3214
    _ZNK13Fl_Tree_Prefs8showrootEv @3215
    _ZNK13Fl_Tree_Prefs8usericonEv @3216
    _ZNK13Fl_Tree_Prefs9closeiconEv @3217
    _ZNK13Fl_Tree_Prefs9labelfontEv @3218
    _ZNK13Fl_Tree_Prefs9labelsizeEv @3219
    _ZNK13Fl_Tree_Prefs9margintopEv @3220
    _ZNK13Fl_Tree_Prefs9selectboxEv @3221
    _ZNK13Fl_Tree_Prefs9sortorderEv @3222
    _ZNK14Fl_Help_Dialog5valueEv @3223
    _ZNK14Fl_Text_Buffer10line_startEi @3224
    _ZNK14Fl_Text_Buffer10text_rangeEii @3225
    _ZNK14Fl_Text_Buffer10word_startEi @3226
    _ZNK14Fl_Text_Buffer11count_linesEii @3227
    _ZNK14Fl_Text_Buffer12tab_distanceEv @3228
    _ZNK14Fl_Text_Buffer14search_forwardEiPKcPii @3229
    _ZNK14Fl_Text_Buffer15search_backwardEiPKcPii @3230
    _ZNK14Fl_Text_Buffer15selection_text_EP17Fl_Text_Selection @3231
    _ZNK14Fl_Text_Buffer16expand_characterEiiPc @3232
    _ZNK14Fl_Text_Buffer16findchar_forwardEicPi @3233
    _ZNK14Fl_Text_Buffer17findchar_backwardEicPi @3234
    _ZNK14Fl_Text_Buffer17findchars_forwardEiPKcPi @3235
    _ZNK14Fl_Text_Buffer17text_in_rectangleEiiii @3236
    _ZNK14Fl_Text_Buffer18findchars_backwardEiPKcPi @3237
    _ZNK14Fl_Text_Buffer19highlight_selectionEv @3238
    _ZNK14Fl_Text_Buffer19redisplay_selectionEP17Fl_Text_SelectionS1_ @3239
    _ZNK14Fl_Text_Buffer19secondary_selectionEv @3240
    _ZNK14Fl_Text_Buffer21call_modify_callbacksEiiiiPKc @3241
    _ZNK14Fl_Text_Buffer24call_predelete_callbacksEii @3242
    _ZNK14Fl_Text_Buffer26count_displayed_charactersEii @3243
    _ZNK14Fl_Text_Buffer32rectangular_selection_boundariesEiiiPiS0_ @3244
    _ZNK14Fl_Text_Buffer4textEv @3245
    _ZNK14Fl_Text_Buffer6lengthEv @3246
    _ZNK14Fl_Text_Buffer8line_endEi @3247
    _ZNK14Fl_Text_Buffer8selectedEv @3248
    _ZNK14Fl_Text_Buffer8word_endEi @3249
    _ZNK14Fl_Text_Buffer9characterEi @3250
    _ZNK14Fl_Text_Buffer9line_textEi @3251
    _ZNK14Fl_Value_Input12cursor_colorEv @3252
    _ZNK14Fl_Value_Input4softEv @3253
    _ZNK14Fl_Value_Input8shortcutEv @3254
    _ZNK14Fl_Value_Input8textfontEv @3255
    _ZNK14Fl_Value_Input8textsizeEv @3256
    _ZNK14Fl_Value_Input9textcolorEv @3257
    _ZNK15Fl_Clock_Output4hourEv @3258
    _ZNK15Fl_Clock_Output5valueEv @3259
    _ZNK15Fl_Clock_Output6minuteEv @3260
    _ZNK15Fl_Clock_Output6secondEv @3261
    _ZNK15Fl_File_Browser10item_widthEPv @3262
    _ZNK15Fl_File_Browser11full_heightEv @3263
    _ZNK15Fl_File_Browser11incr_heightEv @3264
    _ZNK15Fl_File_Browser11item_heightEPv @3265
    _ZNK15Fl_File_Browser6filterEv @3266
    _ZNK15Fl_File_Browser8filetypeEv @3267
    _ZNK15Fl_File_Browser8iconsizeEv @3268
    _ZNK15Fl_File_Browser8textsizeEv @3269
    _ZNK15Fl_File_Browser9item_drawEPviiii @3270
    _ZNK15Fl_File_Chooser7previewEv @3271
    _ZNK15Fl_File_Chooser9user_dataEv @3272
    _ZNK15Fl_Input_Choice5valueEv @3273
    _ZNK15Fl_Input_Choice7changedEv @3274
    _ZNK15Fl_Input_Choice8down_boxEv @3275
    _ZNK15Fl_Input_Choice8textfontEv @3276
    _ZNK15Fl_Input_Choice8textsizeEv @3277
    _ZNK15Fl_Input_Choice9textcolorEv @3278
    _ZNK15Fl_Text_Display10line_startEi @3279
    _ZNK15Fl_Text_Display10word_startEi @3280
    _ZNK15Fl_Text_Display11count_linesEiib @3281
    _ZNK15Fl_Text_Display11wrapped_rowEi @3282
    _ZNK15Fl_Text_Display12cursor_colorEv @3283
    _ZNK15Fl_Text_Display12empty_vlinesEv @3284
    _ZNK15Fl_Text_Display12in_selectionEii @3285
    _ZNK15Fl_Text_Display12string_widthEPKcii @3286
    _ZNK15Fl_Text_Display12vline_lengthEi @3287
    _ZNK15Fl_Text_Display12xy_to_rowcolEiiPiS0_i @3288
    _ZNK15Fl_Text_Display13find_line_endEibPiS0_ @3289
    _ZNK15Fl_Text_Display13longest_vlineEv @3290
    _ZNK15Fl_Text_Display13measure_vlineEi @3291
    _ZNK15Fl_Text_Display14position_styleEiiii @3292
    _ZNK15Fl_Text_Display14position_to_xyEiPiS0_ @3293
    _ZNK15Fl_Text_Display14wrapped_columnEii @3294
    _ZNK15Fl_Text_Display14xy_to_positionEiii @3295
    _ZNK15Fl_Text_Display15insert_positionEv @3296
    _ZNK15Fl_Text_Display15scrollbar_alignEv @3297
    _ZNK15Fl_Text_Display15scrollbar_widthEv @3298
    _ZNK15Fl_Text_Display16position_to_lineEiPi @3299
    _ZNK15Fl_Text_Display19position_to_linecolEiPiS0_ @3300
    _ZNK15Fl_Text_Display19wrap_uses_characterEi @3301
    _ZNK15Fl_Text_Display20wrapped_line_counterEP14Fl_Text_BufferiiibiPiS2_S2_S2_b @3302
    _ZNK15Fl_Text_Display23range_touches_selectionEPK17Fl_Text_Selectionii @3303
    _ZNK15Fl_Text_Display28get_absolute_top_line_numberEv @3304
    _ZNK15Fl_Text_Display30measure_proportional_characterEPKcii @3305
    _ZNK15Fl_Text_Display36maintaining_absolute_top_line_numberEv @3306
    _ZNK15Fl_Text_Display6bufferEv @3307
    _ZNK15Fl_Text_Display8line_endEib @3308
    _ZNK15Fl_Text_Display8shortcutEv @3309
    _ZNK15Fl_Text_Display8textfontEv @3310
    _ZNK15Fl_Text_Display8textsizeEv @3311
    _ZNK15Fl_Text_Display8word_endEi @3312
    _ZNK15Fl_Text_Display9textcolorEv @3313
    _ZNK15Fl_Value_Output4softEv @3314
    _ZNK15Fl_Value_Output8textfontEv @3315
    _ZNK15Fl_Value_Output8textsizeEv @3316
    _ZNK15Fl_Value_Output9textcolorEv @3317
    _ZNK15Fl_Value_Slider8textfontEv @3318
    _ZNK15Fl_Value_Slider8textsizeEv @3319
    _ZNK15Fl_Value_Slider9textcolorEv @3320
    _ZNK16Fl_Check_Browser10item_firstEv @3321
    _ZNK16Fl_Check_Browser10item_widthEPv @3322
    _ZNK16Fl_Check_Browser11item_heightEPv @3323
    _ZNK16Fl_Check_Browser13item_selectedEPv @3324
    _ZNK16Fl_Check_Browser4textEi @3325
    _ZNK16Fl_Check_Browser5valueEv @3326
    _ZNK16Fl_Check_Browser6linenoEPNS_7cb_itemE @3327
    _ZNK16Fl_Check_Browser6nitemsEv @3328
    _ZNK16Fl_Check_Browser7checkedEi @3329
    _ZNK16Fl_Check_Browser8ncheckedEv @3330
    _ZNK16Fl_Check_Browser9find_itemEi @3331
    _ZNK16Fl_Check_Browser9item_drawEPviiii @3332
    _ZNK16Fl_Check_Browser9item_nextEPv @3333
    _ZNK16Fl_Check_Browser9item_prevEPv @3334
    _ZNK16Fl_Color_Chooser10saturationEv @3335
    _ZNK16Fl_Color_Chooser1bEv @3336
    _ZNK16Fl_Color_Chooser1gEv @3337
    _ZNK16Fl_Color_Chooser1rEv @3338
    _ZNK16Fl_Color_Chooser3hueEv @3339
    _ZNK16Fl_Color_Chooser5valueEv @3340
    _ZNK17Fl_Text_Selection10rect_startEv @3341
    _ZNK17Fl_Text_Selection11rectangularEv @3342
    _ZNK17Fl_Text_Selection3endEv @3343
    _ZNK17Fl_Text_Selection5startEv @3344
    _ZNK17Fl_Text_Selection8includesEiii @3345
    _ZNK17Fl_Text_Selection8positionEPiS0_ @3346
    _ZNK17Fl_Text_Selection8positionEPiS0_S0_S0_S0_ @3347
    _ZNK17Fl_Text_Selection8rect_endEv @3348
    _ZNK17Fl_Text_Selection8selectedEv @3349
    _ZNK18Fl_Tree_Item_Array5totalEv @3350
    _ZNK22Fl_Native_File_Chooser11preset_fileEv @3351
    _ZNK22Fl_Native_File_Chooser12filter_valueEv @3352
    _ZNK22Fl_Native_File_Chooser4typeEv @3353
    _ZNK22Fl_Native_File_Chooser5countEv @3354
    _ZNK22Fl_Native_File_Chooser5titleEv @3355
    _ZNK22Fl_Native_File_Chooser6errmsgEv @3356
    _ZNK22Fl_Native_File_Chooser6filterEv @3357
    _ZNK22Fl_Native_File_Chooser7optionsEv @3358
    _ZNK22Fl_Native_File_Chooser8filenameEi @3359
    _ZNK22Fl_Native_File_Chooser8filenameEv @3360
    _ZNK22Fl_Native_File_Chooser9directoryEv @3361
    _ZNK7Fl_Dial6angle1Ev @3362
    _ZNK7Fl_Dial6angle2Ev @3363
    _ZNK7Fl_Pack10horizontalEv @3364
    _ZNK7Fl_Pack7spacingEv @3365
    _ZNK7Fl_Tabs4pushEv @3366
    _ZNK7Fl_Tree10marginleftEv @3367
    _ZNK7Fl_Tree10selectmodeEv @3368
    _ZNK7Fl_Tree11is_selectedEP12Fl_Tree_Item @3369
    _ZNK7Fl_Tree12find_clickedEv @3370
    _ZNK7Fl_Tree12showcollapseEv @3371
    _ZNK7Fl_Tree14connectorstyleEv @3372
    _ZNK7Fl_Tree14connectorwidthEv @3373
    _ZNK7Fl_Tree22openchild_marginbottomEv @3374
    _ZNK7Fl_Tree7is_openEP12Fl_Tree_Item @3375
    _ZNK7Fl_Tree7is_openEPKc @3376
    _ZNK7Fl_Tree8is_closeEP12Fl_Tree_Item @3377
    _ZNK7Fl_Tree8is_closeEPKc @3378
    _ZNK7Fl_Tree8openiconEv @3379
    _ZNK7Fl_Tree8showrootEv @3380
    _ZNK7Fl_Tree8usericonEv @3381
    _ZNK7Fl_Tree9closeiconEv @3382
    _ZNK7Fl_Tree9find_itemEPKc @3383
    _ZNK7Fl_Tree9labelfontEv @3384
    _ZNK7Fl_Tree9labelsizeEv @3385
    _ZNK7Fl_Tree9margintopEv @3386
    _ZNK7Fl_Tree9selectboxEv @3387
    _ZNK7Fl_Tree9sortorderEv @3388
    _ZNK8Fl_Chart4sizeEv @3389
    _ZNK8Fl_Chart6boundsEPdS0_ @3390
    _ZNK8Fl_Chart7maxsizeEv @3391
    _ZNK8Fl_Chart8autosizeEv @3392
    _ZNK8Fl_Chart8textfontEv @3393
    _ZNK8Fl_Chart8textsizeEv @3394
    _ZNK8Fl_Chart9textcolorEv @3395
    _ZNK8Fl_Group10draw_childER9Fl_Widget @3396
    _ZNK8Fl_Group12update_childER9Fl_Widget @3397
    _ZNK8Fl_Group18draw_outside_labelERK9Fl_Widget @3398
    _ZNK8Fl_Group4findEPK9Fl_Widget @3399
    _ZNK8Fl_Group5arrayEv @3400
    _ZNK8Fl_Group5childEi @3401
    _ZNK8Fl_Group8childrenEv @3402
    _ZNK8Fl_Group9resizableEv @3403
    _ZNK8Fl_Image1dEv @3404
    _ZNK8Fl_Image1hEv @3405
    _ZNK8Fl_Image1wEv @3406
    _ZNK8Fl_Image2ldEv @3407
    _ZNK8Fl_Image5countEv @3408
    _ZNK8Fl_Label4drawEiiiij @3409
    _ZNK8Fl_Label7measureERiS0_ @3410
    _ZNK8Fl_Menu_10down_colorEv @3411
    _ZNK8Fl_Menu_10find_indexEPFvP9Fl_WidgetPvE @3412
    _ZNK8Fl_Menu_10find_indexEPK12Fl_Menu_Item @3413
    _ZNK8Fl_Menu_10find_indexEPKc @3414
    _ZNK8Fl_Menu_13item_pathnameEPciPK12Fl_Menu_Item @3415
    _ZNK8Fl_Menu_4menuEv @3416
    _ZNK8Fl_Menu_4modeEi @3417
    _ZNK8Fl_Menu_4sizeEv @3418
    _ZNK8Fl_Menu_4textEi @3419
    _ZNK8Fl_Menu_4textEv @3420
    _ZNK8Fl_Menu_5valueEv @3421
    _ZNK8Fl_Menu_6mvalueEv @3422
    _ZNK8Fl_Menu_8down_boxEv @3423
    _ZNK8Fl_Menu_8textfontEv @3424
    _ZNK8Fl_Menu_8textsizeEv @3425
    _ZNK8Fl_Menu_9textcolorEv @3426
    _ZNK8Fl_Table4findEPK9Fl_Widget @3427
    _ZNK8Fl_Table5childEi @3428
    _ZNK8Fl_Table8childrenEv @3429
    _ZNK8Flv_List16dead_space_colorEv @3430
    _ZNK9Fl_Button10down_colorEv @3431
    _ZNK9Fl_Button5valueEv @3432
    _ZNK9Fl_Button8down_boxEv @3433
    _ZNK9Fl_Button8shortcutEv @3434
    _ZNK9Fl_Choice5valueEv @3435
    _ZNK9Fl_Input_10input_typeEv @3436
    _ZNK9Fl_Input_10line_startEi @3437
    _ZNK9Fl_Input_10word_startEi @3438
    _ZNK9Fl_Input_12cursor_colorEv @3439
    _ZNK9Fl_Input_12maximum_sizeEv @3440
    _ZNK9Fl_Input_4markEv @3441
    _ZNK9Fl_Input_4sizeEv @3442
    _ZNK9Fl_Input_4wrapEv @3443
    _ZNK9Fl_Input_5indexEi @3444
    _ZNK9Fl_Input_5valueEv @3445
    _ZNK9Fl_Input_6expandEPKcPc @3446
    _ZNK9Fl_Input_7setfontEv @3447
    _ZNK9Fl_Input_8line_endEi @3448
    _ZNK9Fl_Input_8positionEv @3449
    _ZNK9Fl_Input_8readonlyEv @3450
    _ZNK9Fl_Input_8shortcutEv @3451
    _ZNK9Fl_Input_8textfontEv @3452
    _ZNK9Fl_Input_8textsizeEv @3453
    _ZNK9Fl_Input_8word_endEi @3454
    _ZNK9Fl_Input_9expandposEPKcS1_S1_Pi @3455
    _ZNK9Fl_Input_9textcolorEv @3456
    _ZNK9Fl_Scroll14scrollbar_sizeEv @3457
    _ZNK9Fl_Scroll9xpositionEv @3458
    _ZNK9Fl_Scroll9ypositionEv @3459
    _ZNK9Fl_Slider11slider_sizeEv @3460
    _ZNK9Fl_Slider6sliderEv @3461
    _ZNK9Fl_Widget10draw_focusE10Fl_Boxtypeiiii @3462
    _ZNK9Fl_Widget10draw_labelEiiii @3463
    _ZNK9Fl_Widget10draw_labelEiiiij @3464
    _ZNK9Fl_Widget10draw_labelEv @3465
    _ZNK9Fl_Widget10labelcolorEv @3466
    _ZNK9Fl_Widget11parent_rootEv @3467
    _ZNK9Fl_Widget11takeseventsEv @3468
    _ZNK9Fl_Widget13draw_backdropEv @3469
    _ZNK9Fl_Widget15selection_colorEv @3470
    _ZNK9Fl_Widget1hEv @3471
    _ZNK9Fl_Widget1wEv @3472
    _ZNK9Fl_Widget1xEv @3473
    _ZNK9Fl_Widget1yEv @3474
    _ZNK9Fl_Widget3boxEv @3475
    _ZNK9Fl_Widget4typeEv @3476
    _ZNK9Fl_Widget4whenEv @3477
    _ZNK9Fl_Widget5alignEv @3478
    _ZNK9Fl_Widget5colorEv @3479
    _ZNK9Fl_Widget5flagsEv @3480
    _ZNK9Fl_Widget5labelEv @3481
    _ZNK9Fl_Widget6activeEv @3482
    _ZNK9Fl_Widget6damageEv @3483
    _ZNK9Fl_Widget6insideEPKS_ @3484
    _ZNK9Fl_Widget6outputEv @3485
    _ZNK9Fl_Widget6parentEv @3486
    _ZNK9Fl_Widget6windowEv @3487
    _ZNK9Fl_Widget7changedEv @3488
    _ZNK9Fl_Widget7tooltipEv @3489
    _ZNK9Fl_Widget7visibleEv @3490
    _ZNK9Fl_Widget8active_rEv @3491
    _ZNK9Fl_Widget8argumentEv @3492
    _ZNK9Fl_Widget8callbackEv @3493
    _ZNK9Fl_Widget8containsEPKS_ @3494
    _ZNK9Fl_Widget8draw_boxE10Fl_Boxtypeiiiij @3495
    _ZNK9Fl_Widget8draw_boxE10Fl_Boxtypej @3496
    _ZNK9Fl_Widget8draw_boxEv @3497
    _ZNK9Fl_Widget8is_groupEv @3498
    _ZNK9Fl_Widget8textfontEv @3499
    _ZNK9Fl_Widget8textsizeEv @3500
    _ZNK9Fl_Widget9is_windowEv @3501
    _ZNK9Fl_Widget9labelfontEv @3502
    _ZNK9Fl_Widget9labelsizeEv @3503
    _ZNK9Fl_Widget9labeltypeEv @3504
    _ZNK9Fl_Widget9user_dataEv @3505
    _ZNK9Fl_Widget9visible_rEv @3506
    _ZNK9Fl_Window11menu_windowEv @3507
    _ZNK9Fl_Window14tooltip_windowEv @3508
    _ZNK9Fl_Window4iconEv @3509
    _ZNK9Fl_Window5labelEv @3510
    _ZNK9Fl_Window5modalEv @3511
    _ZNK9Fl_Window6borderEv @3512
    _ZNK9Fl_Window6x_rootEv @3513
    _ZNK9Fl_Window6xclassEv @3514
    _ZNK9Fl_Window6y_rootEv @3515
    _ZNK9Fl_Window8overrideEv @3516
    _ZNK9Fl_Window9iconlabelEv @3517
    _ZNK9Fl_Window9non_modalEv @3518
    _ZNK9Flv_Style10backgroundEv @3519
    _ZNK9Flv_Style10foregroundEv @3520
    _ZNK9Flv_Style10top_borderEv @3521
    _ZNK9Flv_Style11left_borderEv @3522
    _ZNK9Flv_Style12border_colorEv @3523
    _ZNK9Flv_Style12font_definedEv @3524
    _ZNK9Flv_Style12right_borderEv @3525
    _ZNK9Flv_Style13align_definedEv @3526
    _ZNK9Flv_Style13bottom_borderEv @3527
    _ZNK9Flv_Style13frame_definedEv @3528
    _ZNK9Flv_Style13width_definedEv @3529
    _ZNK9Flv_Style14border_definedEv @3530
    _ZNK9Flv_Style14border_spacingEv @3531
    _ZNK9Flv_Style14editor_definedEv @3532
    _ZNK9Flv_Style14height_definedEv @3533
    _ZNK9Flv_Style14locked_definedEv @3534
    _ZNK9Flv_Style16inner_top_borderEv @3535
    _ZNK9Flv_Style16x_margin_definedEv @3536
    _ZNK9Flv_Style16y_margin_definedEv @3537
    _ZNK9Flv_Style17font_size_definedEv @3538
    _ZNK9Flv_Style17inner_left_borderEv @3539
    _ZNK9Flv_Style17resizable_definedEv @3540
    _ZNK9Flv_Style18background_definedEv @3541
    _ZNK9Flv_Style18foreground_definedEv @3542
    _ZNK9Flv_Style18inner_right_borderEv @3543
    _ZNK9Flv_Style19inner_bottom_borderEv @3544
    _ZNK9Flv_Style20border_color_definedEv @3545
    _ZNK9Flv_Style22border_spacing_definedEv @3546
    _ZNK9Flv_Style5widthEv @3547
    _ZNK9Flv_Style6borderEv @3548
    _ZNK9Flv_Style6editorEv @3549
    _ZNK9Flv_Style6heightEv @3550
    _ZNK9Flv_Style6lockedEv @3551
    _ZNK9Flv_Style8x_marginEv @3552
    _ZNK9Flv_Style8y_marginEv @3553
    _ZNK9Flv_Style9font_sizeEv @3554
    _ZNK9Flv_Style9resizableEv @3555
    _ZNK9Flv_Table13move_on_enterEv @3556
    _ZTI10Fl_Browser @3557 DATA
    _ZTI10Fl_Counter @3558 DATA
    _ZTI10Fl_Display @3559 DATA
    _ZTI10Fl_Printer @3560 DATA
    _ZTI10Fl_Spinner @3561 DATA
    _ZTI10Flve_Input @3562 DATA
    _ZTI10menuwindow @3563 DATA
    _ZTI11Fl_Adjuster @3564 DATA
    _ZTI11Fl_Browser_ @3565 DATA
    _ZTI11Fl_Menu_Bar @3566 DATA
    _ZTI11Fl_Progress @3567 DATA
    _ZTI11Fl_Valuator @3568 DATA
    _ZTI11Flcc_HueBox @3569 DATA
    _ZTI11IDataObject @3570 DATA
    _ZTI11IDropSource @3571 DATA
    _ZTI11IDropTarget @3572 DATA
    _ZTI12FLDataObject @3573 DATA
    _ZTI12FLDropSource @3574 DATA
    _ZTI12FLDropTarget @3575 DATA
    _ZTI12Fl_BMP_Image @3576 DATA
    _ZTI12Fl_Fill_Dial @3577 DATA
    _ZTI12Fl_GIF_Image @3578 DATA
    _ZTI12Fl_Help_View @3579 DATA
    _ZTI12Fl_Int_Input @3580 DATA
    _ZTI12Fl_Line_Dial @3581 DATA
    _ZTI12Fl_PNG_Image @3582 DATA
    _ZTI12Fl_PNM_Image @3583 DATA
    _ZTI12Fl_RGB_Image @3584 DATA
    _ZTI12Fl_Scrollbar @3585 DATA
    _ZTI12Fl_Table_Row @3586 DATA
    _ZTI12Fl_XBM_Image @3587 DATA
    _ZTI12Fl_XPM_Image @3588 DATA
    _ZTI13Fl_File_Input @3589 DATA
    _ZTI13Fl_Hor_Slider @3590 DATA
    _ZTI13Fl_JPEG_Image @3591 DATA
    _ZTI13Fl_Positioner @3592 DATA
    _ZTI13Fl_TooltipBox @3593 DATA
    _ZTI13Flcc_ValueBox @3594 DATA
    _ZTI13Lua_Fl_Pixmap @3595 DATA
    _ZTI14Fl_Fill_Slider @3596 DATA
    _ZTI14Fl_Float_Input @3597 DATA
    _ZTI14Fl_GDI_Display @3598 DATA
    _ZTI14Fl_Help_Dialog @3599 DATA
    _ZTI14Fl_Menu_Button @3600 DATA
    _ZTI14Fl_Menu_Window @3601 DATA
    _ZTI14Fl_Nice_Slider @3602 DATA
    _ZTI14Fl_Round_Clock @3603 DATA
    _ZTI14Fl_Text_Editor @3604 DATA
    _ZTI14Fl_Tiled_Image @3605 DATA
    _ZTI14Fl_Value_Input @3606 DATA
    _ZTI15Fl_Check_Button @3607 DATA
    _ZTI15Fl_Clock_Output @3608 DATA
    _ZTI15Fl_File_Browser @3609 DATA
    _ZTI15Fl_Hold_Browser @3610 DATA
    _ZTI15Fl_Input_Choice @3611 DATA
    _ZTI15Fl_Light_Button @3612 DATA
    _ZTI15Fl_Radio_Button @3613 DATA
    _ZTI15Fl_Round_Button @3614 DATA
    _ZTI15Fl_Secret_Input @3615 DATA
    _ZTI15Fl_Shared_Image @3616 DATA
    _ZTI15Fl_Text_Display @3617 DATA
    _ZTI15Fl_Value_Output @3618 DATA
    _ZTI15Fl_Value_Slider @3619 DATA
    _ZTI16Fl_Check_Browser @3620 DATA
    _ZTI16Fl_Color_Chooser @3621 DATA
    _ZTI16Fl_Double_Window @3622 DATA
    _ZTI16Fl_Multi_Browser @3623 DATA
    _ZTI16Fl_PSfile_Device @3624 DATA
    _ZTI16Fl_Repeat_Button @3625 DATA
    _ZTI16Fl_Return_Button @3626 DATA
    _ZTI16Fl_Single_Window @3627 DATA
    _ZTI16Fl_Toggle_Button @3628 DATA
    _ZTI16Flcc_Value_Input @3629 DATA
    _ZTI17Fl_Overlay_Window @3630 DATA
    _ZTI17Fl_Select_Browser @3631 DATA
    _ZTI17Fl_Simple_Counter @3632 DATA
    _ZTI17Flve_Check_Button @3633 DATA
    _ZTI18Fl_Hor_Fill_Slider @3634 DATA
    _ZTI18Fl_Hor_Nice_Slider @3635 DATA
    _ZTI18Fl_Multiline_Input @3636 DATA
    _ZTI19Fl_Abstract_Printer @3637 DATA
    _ZTI19Fl_Hor_Value_Slider @3638 DATA
    _ZTI19Fl_Multiline_Output @3639 DATA
    _ZTI21Fl_Radio_Light_Button @3640 DATA
    _ZTI21Fl_Radio_Round_Button @3641 DATA
    _ZTI6Fl_Box @3642 DATA
    _ZTI7Fl_Dial @3643 DATA
    _ZTI7Fl_Pack @3644 DATA
    _ZTI7Fl_Tabs @3645 DATA
    _ZTI7Fl_Tile @3646 DATA
    _ZTI7Fl_Tree @3647 DATA
    _ZTI8Fl_Chart @3648 DATA
    _ZTI8Fl_Clock @3649 DATA
    _ZTI8Fl_Group @3650 DATA
    _ZTI8Fl_Image @3651 DATA
    _ZTI8Fl_Input @3652 DATA
    _ZTI8Fl_Menu_ @3653 DATA
    _ZTI8Fl_Table @3654 DATA
    _ZTI8Flv_List @3655 DATA
    _ZTI8IUnknown @3656 DATA
    _ZTI9ColorChip @3657 DATA
    _ZTI9ColorMenu @3658 DATA
    _ZTI9Fl_Bitmap @3659 DATA
    _ZTI9Fl_Button @3660 DATA
    _ZTI9Fl_Choice @3661 DATA
    _ZTI9Fl_Device @3662 DATA
    _ZTI9Fl_Input_ @3663 DATA
    _ZTI9Fl_Output @3664 DATA
    _ZTI9Fl_Pixmap @3665 DATA
    _ZTI9Fl_Plugin @3666 DATA
    _ZTI9Fl_Roller @3667 DATA
    _ZTI9Fl_Scroll @3668 DATA
    _ZTI9Fl_Slider @3669 DATA
    _ZTI9Fl_Widget @3670 DATA
    _ZTI9Fl_Window @3671 DATA
    _ZTI9Fl_Wizard @3672 DATA
    _ZTI9Flv_Table @3673 DATA
    _ZTI9menutitle @3674 DATA
    _ZTIN15Fl_Input_Choice15InputMenuButtonE @3675 DATA
    _ZTS10Fl_Browser @3676 DATA
    _ZTS10Fl_Counter @3677 DATA
    _ZTS10Fl_Display @3678 DATA
    _ZTS10Fl_Printer @3679 DATA
    _ZTS10Fl_Spinner @3680 DATA
    _ZTS10Flve_Input @3681 DATA
    _ZTS10menuwindow @3682 DATA
    _ZTS11Fl_Adjuster @3683 DATA
    _ZTS11Fl_Browser_ @3684 DATA
    _ZTS11Fl_Menu_Bar @3685 DATA
    _ZTS11Fl_Progress @3686 DATA
    _ZTS11Fl_Valuator @3687 DATA
    _ZTS11Flcc_HueBox @3688 DATA
    _ZTS11IDataObject @3689 DATA
    _ZTS11IDropSource @3690 DATA
    _ZTS11IDropTarget @3691 DATA
    _ZTS12FLDataObject @3692 DATA
    _ZTS12FLDropSource @3693 DATA
    _ZTS12FLDropTarget @3694 DATA
    _ZTS12Fl_BMP_Image @3695 DATA
    _ZTS12Fl_Fill_Dial @3696 DATA
    _ZTS12Fl_GIF_Image @3697 DATA
    _ZTS12Fl_Help_View @3698 DATA
    _ZTS12Fl_Int_Input @3699 DATA
    _ZTS12Fl_Line_Dial @3700 DATA
    _ZTS12Fl_PNG_Image @3701 DATA
    _ZTS12Fl_PNM_Image @3702 DATA
    _ZTS12Fl_RGB_Image @3703 DATA
    _ZTS12Fl_Scrollbar @3704 DATA
    _ZTS12Fl_Table_Row @3705 DATA
    _ZTS12Fl_XBM_Image @3706 DATA
    _ZTS12Fl_XPM_Image @3707 DATA
    _ZTS13Fl_File_Input @3708 DATA
    _ZTS13Fl_Hor_Slider @3709 DATA
    _ZTS13Fl_JPEG_Image @3710 DATA
    _ZTS13Fl_Positioner @3711 DATA
    _ZTS13Fl_TooltipBox @3712 DATA
    _ZTS13Flcc_ValueBox @3713 DATA
    _ZTS13Lua_Fl_Pixmap @3714 DATA
    _ZTS14Fl_Fill_Slider @3715 DATA
    _ZTS14Fl_Float_Input @3716 DATA
    _ZTS14Fl_GDI_Display @3717 DATA
    _ZTS14Fl_Help_Dialog @3718 DATA
    _ZTS14Fl_Menu_Button @3719 DATA
    _ZTS14Fl_Menu_Window @3720 DATA
    _ZTS14Fl_Nice_Slider @3721 DATA
    _ZTS14Fl_Round_Clock @3722 DATA
    _ZTS14Fl_Text_Editor @3723 DATA
    _ZTS14Fl_Tiled_Image @3724 DATA
    _ZTS14Fl_Value_Input @3725 DATA
    _ZTS15Fl_Check_Button @3726 DATA
    _ZTS15Fl_Clock_Output @3727 DATA
    _ZTS15Fl_File_Browser @3728 DATA
    _ZTS15Fl_Hold_Browser @3729 DATA
    _ZTS15Fl_Input_Choice @3730 DATA
    _ZTS15Fl_Light_Button @3731 DATA
    _ZTS15Fl_Radio_Button @3732 DATA
    _ZTS15Fl_Round_Button @3733 DATA
    _ZTS15Fl_Secret_Input @3734 DATA
    _ZTS15Fl_Shared_Image @3735 DATA
    _ZTS15Fl_Text_Display @3736 DATA
    _ZTS15Fl_Value_Output @3737 DATA
    _ZTS15Fl_Value_Slider @3738 DATA
    _ZTS16Fl_Check_Browser @3739 DATA
    _ZTS16Fl_Color_Chooser @3740 DATA
    _ZTS16Fl_Double_Window @3741 DATA
    _ZTS16Fl_Multi_Browser @3742 DATA
    _ZTS16Fl_PSfile_Device @3743 DATA
    _ZTS16Fl_Repeat_Button @3744 DATA
    _ZTS16Fl_Return_Button @3745 DATA
    _ZTS16Fl_Single_Window @3746 DATA
    _ZTS16Fl_Toggle_Button @3747 DATA
    _ZTS16Flcc_Value_Input @3748 DATA
    _ZTS17Fl_Overlay_Window @3749 DATA
    _ZTS17Fl_Select_Browser @3750 DATA
    _ZTS17Fl_Simple_Counter @3751 DATA
    _ZTS17Flve_Check_Button @3752 DATA
    _ZTS18Fl_Hor_Fill_Slider @3753 DATA
    _ZTS18Fl_Hor_Nice_Slider @3754 DATA
    _ZTS18Fl_Multiline_Input @3755 DATA
    _ZTS19Fl_Abstract_Printer @3756 DATA
    _ZTS19Fl_Hor_Value_Slider @3757 DATA
    _ZTS19Fl_Multiline_Output @3758 DATA
    _ZTS21Fl_Radio_Light_Button @3759 DATA
    _ZTS21Fl_Radio_Round_Button @3760 DATA
    _ZTS6Fl_Box @3761 DATA
    _ZTS7Fl_Dial @3762 DATA
    _ZTS7Fl_Pack @3763 DATA
    _ZTS7Fl_Tabs @3764 DATA
    _ZTS7Fl_Tile @3765 DATA
    _ZTS7Fl_Tree @3766 DATA
    _ZTS8Fl_Chart @3767 DATA
    _ZTS8Fl_Clock @3768 DATA
    _ZTS8Fl_Group @3769 DATA
    _ZTS8Fl_Image @3770 DATA
    _ZTS8Fl_Input @3771 DATA
    _ZTS8Fl_Menu_ @3772 DATA
    _ZTS8Fl_Table @3773 DATA
    _ZTS8Flv_List @3774 DATA
    _ZTS8IUnknown @3775 DATA
    _ZTS9ColorChip @3776 DATA
    _ZTS9ColorMenu @3777 DATA
    _ZTS9Fl_Bitmap @3778 DATA
    _ZTS9Fl_Button @3779 DATA
    _ZTS9Fl_Choice @3780 DATA
    _ZTS9Fl_Device @3781 DATA
    _ZTS9Fl_Input_ @3782 DATA
    _ZTS9Fl_Output @3783 DATA
    _ZTS9Fl_Pixmap @3784 DATA
    _ZTS9Fl_Plugin @3785 DATA
    _ZTS9Fl_Roller @3786 DATA
    _ZTS9Fl_Scroll @3787 DATA
    _ZTS9Fl_Slider @3788 DATA
    _ZTS9Fl_Widget @3789 DATA
    _ZTS9Fl_Window @3790 DATA
    _ZTS9Fl_Wizard @3791 DATA
    _ZTS9Flv_Table @3792 DATA
    _ZTS9menutitle @3793 DATA
    _ZTSN15Fl_Input_Choice15InputMenuButtonE @3794 DATA
    _ZTV10Fl_Browser @3795 DATA
    _ZTV10Fl_Counter @3796 DATA
    _ZTV10Fl_Display @3797 DATA
    _ZTV10Fl_Printer @3798 DATA
    _ZTV10Fl_Spinner @3799 DATA
    _ZTV10Flve_Input @3800 DATA
    _ZTV10menuwindow @3801 DATA
    _ZTV11Fl_Adjuster @3802 DATA
    _ZTV11Fl_Browser_ @3803 DATA
    _ZTV11Fl_Menu_Bar @3804 DATA
    _ZTV11Fl_Progress @3805 DATA
    _ZTV11Fl_Valuator @3806 DATA
    _ZTV11Flcc_HueBox @3807 DATA
    _ZTV11IDataObject @3808 DATA
    _ZTV11IDropSource @3809 DATA
    _ZTV11IDropTarget @3810 DATA
    _ZTV12FLDataObject @3811 DATA
    _ZTV12FLDropSource @3812 DATA
    _ZTV12FLDropTarget @3813 DATA
    _ZTV12Fl_BMP_Image @3814 DATA
    _ZTV12Fl_Fill_Dial @3815 DATA
    _ZTV12Fl_GIF_Image @3816 DATA
    _ZTV12Fl_Help_View @3817 DATA
    _ZTV12Fl_Int_Input @3818 DATA
    _ZTV12Fl_Line_Dial @3819 DATA
    _ZTV12Fl_PNG_Image @3820 DATA
    _ZTV12Fl_PNM_Image @3821 DATA
    _ZTV12Fl_RGB_Image @3822 DATA
    _ZTV12Fl_Scrollbar @3823 DATA
    _ZTV12Fl_Table_Row @3824 DATA
    _ZTV12Fl_XBM_Image @3825 DATA
    _ZTV12Fl_XPM_Image @3826 DATA
    _ZTV13Fl_File_Input @3827 DATA
    _ZTV13Fl_Hor_Slider @3828 DATA
    _ZTV13Fl_JPEG_Image @3829 DATA
    _ZTV13Fl_Positioner @3830 DATA
    _ZTV13Fl_TooltipBox @3831 DATA
    _ZTV13Flcc_ValueBox @3832 DATA
    _ZTV13Lua_Fl_Pixmap @3833 DATA
    _ZTV14Fl_Fill_Slider @3834 DATA
    _ZTV14Fl_Float_Input @3835 DATA
    _ZTV14Fl_GDI_Display @3836 DATA
    _ZTV14Fl_Help_Dialog @3837 DATA
    _ZTV14Fl_Menu_Button @3838 DATA
    _ZTV14Fl_Menu_Window @3839 DATA
    _ZTV14Fl_Nice_Slider @3840 DATA
    _ZTV14Fl_Round_Clock @3841 DATA
    _ZTV14Fl_Text_Editor @3842 DATA
    _ZTV14Fl_Tiled_Image @3843 DATA
    _ZTV14Fl_Value_Input @3844 DATA
    _ZTV15Fl_Check_Button @3845 DATA
    _ZTV15Fl_Clock_Output @3846 DATA
    _ZTV15Fl_File_Browser @3847 DATA
    _ZTV15Fl_Hold_Browser @3848 DATA
    _ZTV15Fl_Input_Choice @3849 DATA
    _ZTV15Fl_Light_Button @3850 DATA
    _ZTV15Fl_Radio_Button @3851 DATA
    _ZTV15Fl_Round_Button @3852 DATA
    _ZTV15Fl_Secret_Input @3853 DATA
    _ZTV15Fl_Shared_Image @3854 DATA
    _ZTV15Fl_Text_Display @3855 DATA
    _ZTV15Fl_Value_Output @3856 DATA
    _ZTV15Fl_Value_Slider @3857 DATA
    _ZTV16Fl_Check_Browser @3858 DATA
    _ZTV16Fl_Color_Chooser @3859 DATA
    _ZTV16Fl_Double_Window @3860 DATA
    _ZTV16Fl_Multi_Browser @3861 DATA
    _ZTV16Fl_PSfile_Device @3862 DATA
    _ZTV16Fl_Repeat_Button @3863 DATA
    _ZTV16Fl_Return_Button @3864 DATA
    _ZTV16Fl_Single_Window @3865 DATA
    _ZTV16Fl_Toggle_Button @3866 DATA
    _ZTV16Flcc_Value_Input @3867 DATA
    _ZTV17Fl_Overlay_Window @3868 DATA
    _ZTV17Fl_Select_Browser @3869 DATA
    _ZTV17Fl_Simple_Counter @3870 DATA
    _ZTV17Flve_Check_Button @3871 DATA
    _ZTV18Fl_Hor_Fill_Slider @3872 DATA
    _ZTV18Fl_Hor_Nice_Slider @3873 DATA
    _ZTV18Fl_Multiline_Input @3874 DATA
    _ZTV19Fl_Abstract_Printer @3875 DATA
    _ZTV19Fl_Hor_Value_Slider @3876 DATA
    _ZTV19Fl_Multiline_Output @3877 DATA
    _ZTV21Fl_Radio_Light_Button @3878 DATA
    _ZTV21Fl_Radio_Round_Button @3879 DATA
    _ZTV6Fl_Box @3880 DATA
    _ZTV7Fl_Dial @3881 DATA
    _ZTV7Fl_Pack @3882 DATA
    _ZTV7Fl_Tabs @3883 DATA
    _ZTV7Fl_Tile @3884 DATA
    _ZTV7Fl_Tree @3885 DATA
    _ZTV8Fl_Chart @3886 DATA
    _ZTV8Fl_Clock @3887 DATA
    _ZTV8Fl_Group @3888 DATA
    _ZTV8Fl_Image @3889 DATA
    _ZTV8Fl_Input @3890 DATA
    _ZTV8Fl_Menu_ @3891 DATA
    _ZTV8Fl_Table @3892 DATA
    _ZTV8Flv_List @3893 DATA
    _ZTV8IUnknown @3894 DATA
    _ZTV9ColorChip @3895 DATA
    _ZTV9ColorMenu @3896 DATA
    _ZTV9Fl_Bitmap @3897 DATA
    _ZTV9Fl_Button @3898 DATA
    _ZTV9Fl_Choice @3899 DATA
    _ZTV9Fl_Device @3900 DATA
    _ZTV9Fl_Input_ @3901 DATA
    _ZTV9Fl_Output @3902 DATA
    _ZTV9Fl_Pixmap @3903 DATA
    _ZTV9Fl_Plugin @3904 DATA
    _ZTV9Fl_Roller @3905 DATA
    _ZTV9Fl_Scroll @3906 DATA
    _ZTV9Fl_Slider @3907 DATA
    _ZTV9Fl_Widget @3908 DATA
    _ZTV9Fl_Window @3909 DATA
    _ZTV9Fl_Wizard @3910 DATA
    _ZTV9Flv_Table @3911 DATA
    _ZTV9menutitle @3912 DATA
    _ZTVN15Fl_Input_Choice15InputMenuButtonE @3913 DATA
    _ZZN10Fl_Browser15cheap_rtti_infoEvE3scr @3914 DATA
    _ZZN10Fl_Counter15cheap_rtti_infoEvE3scr @3915 DATA
    _ZZN10Fl_Spinner15cheap_rtti_infoEvE3scr @3916 DATA
    _ZZN11Fl_Adjuster15cheap_rtti_infoEvE3scr @3917 DATA
    _ZZN11Fl_Browser_15cheap_rtti_infoEvE3scr @3918 DATA
    _ZZN11Fl_Menu_Bar15cheap_rtti_infoEvE3scr @3919 DATA
    _ZZN11Fl_Progress15cheap_rtti_infoEvE3scr @3920 DATA
    _ZZN11Fl_Valuator15cheap_rtti_infoEvE3scr @3921 DATA
    _ZZN11Flcc_HueBox15cheap_rtti_infoEvE3scr @3922 DATA
    _ZZN12Fl_BMP_Image15cheap_rtti_infoEvE3scr @3923 DATA
    _ZZN12Fl_GIF_Image15cheap_rtti_infoEvE3scr @3924 DATA
    _ZZN12Fl_Help_View15cheap_rtti_infoEvE3scr @3925 DATA
    _ZZN12Fl_Int_Input15cheap_rtti_infoEvE3scr @3926 DATA
    _ZZN12Fl_Line_Dial15cheap_rtti_infoEvE3scr @3927 DATA
    _ZZN12Fl_PNM_Image15cheap_rtti_infoEvE3scr @3928 DATA
    _ZZN12Fl_RGB_Image15cheap_rtti_infoEvE3scr @3929 DATA
    _ZZN12Fl_Scrollbar15cheap_rtti_infoEvE3scr @3930 DATA
    _ZZN12Fl_Table_Row15cheap_rtti_infoEvE3scr @3931 DATA
    _ZZN12Fl_XBM_Image15cheap_rtti_infoEvE3scr @3932 DATA
    _ZZN12Fl_XPM_Image15cheap_rtti_infoEvE3scr @3933 DATA
    _ZZN13Fl_File_Input15cheap_rtti_infoEvE3scr @3934 DATA
    _ZZN13Fl_Hor_Slider15cheap_rtti_infoEvE3scr @3935 DATA
    _ZZN13Fl_JPEG_Image15cheap_rtti_infoEvE3scr @3936 DATA
    _ZZN13Fl_Positioner15cheap_rtti_infoEvE3scr @3937 DATA
    _ZZN13Flcc_ValueBox15cheap_rtti_infoEvE3scr @3938 DATA
    _ZZN14Fl_Help_Dialog15cheap_rtti_infoEvE3scr @3939 DATA
    _ZZN14Fl_Menu_Button15cheap_rtti_infoEvE3scr @3940 DATA
    _ZZN14Fl_Menu_Window15cheap_rtti_infoEvE3scr @3941 DATA
    _ZZN14Fl_Nice_Slider15cheap_rtti_infoEvE3scr @3942 DATA
    _ZZN14Fl_Round_Clock15cheap_rtti_infoEvE3scr @3943 DATA
    _ZZN14Fl_Text_Editor15cheap_rtti_infoEvE3scr @3944 DATA
    _ZZN14Fl_Tiled_Image15cheap_rtti_infoEvE3scr @3945 DATA
    _ZZN14Fl_Value_Input15cheap_rtti_infoEvE3scr @3946 DATA
    _ZZN15Fl_Check_Button15cheap_rtti_infoEvE3scr @3947 DATA
    _ZZN15Fl_Clock_Output15cheap_rtti_infoEvE3scr @3948 DATA
    _ZZN15Fl_File_Browser15cheap_rtti_infoEvE3scr @3949 DATA
    _ZZN15Fl_Hold_Browser15cheap_rtti_infoEvE3scr @3950 DATA
    _ZZN15Fl_Input_Choice15cheap_rtti_infoEvE3scr @3951 DATA
    _ZZN15Fl_Light_Button15cheap_rtti_infoEvE3scr @3952 DATA
    _ZZN15Fl_Radio_Button15cheap_rtti_infoEvE3scr @3953 DATA
    _ZZN15Fl_Round_Button15cheap_rtti_infoEvE3scr @3954 DATA
    _ZZN15Fl_Secret_Input15cheap_rtti_infoEvE3scr @3955 DATA
    _ZZN15Fl_Shared_Image15cheap_rtti_infoEvE3scr @3956 DATA
    _ZZN15Fl_Text_Display15cheap_rtti_infoEvE3scr @3957 DATA
    _ZZN15Fl_Value_Output15cheap_rtti_infoEvE3scr @3958 DATA
    _ZZN15Fl_Value_Slider15cheap_rtti_infoEvE3scr @3959 DATA
    _ZZN16Fl_Check_Browser15cheap_rtti_infoEvE3scr @3960 DATA
    _ZZN16Fl_Color_Chooser15cheap_rtti_infoEvE3scr @3961 DATA
    _ZZN16Fl_Double_Window15cheap_rtti_infoEvE3scr @3962 DATA
    _ZZN16Fl_Multi_Browser15cheap_rtti_infoEvE3scr @3963 DATA
    _ZZN16Fl_Repeat_Button15cheap_rtti_infoEvE3scr @3964 DATA
    _ZZN16Fl_Return_Button15cheap_rtti_infoEvE3scr @3965 DATA
    _ZZN16Fl_Single_Window15cheap_rtti_infoEvE3scr @3966 DATA
    _ZZN16Fl_Toggle_Button15cheap_rtti_infoEvE3scr @3967 DATA
    _ZZN16Flcc_Value_Input15cheap_rtti_infoEvE3scr @3968 DATA
    _ZZN17Fl_Overlay_Window15cheap_rtti_infoEvE3scr @3969 DATA
    _ZZN17Fl_Select_Browser15cheap_rtti_infoEvE3scr @3970 DATA
    _ZZN17Fl_Simple_Counter15cheap_rtti_infoEvE3scr @3971 DATA
    _ZZN18Fl_Hor_Fill_Slider15cheap_rtti_infoEvE3scr @3972 DATA
    _ZZN18Fl_Hor_Nice_Slider15cheap_rtti_infoEvE3scr @3973 DATA
    _ZZN18Fl_Multiline_Input15cheap_rtti_infoEvE3scr @3974 DATA
    _ZZN19Fl_Hor_Value_Slider15cheap_rtti_infoEvE3scr @3975 DATA
    _ZZN19Fl_Multiline_Output15cheap_rtti_infoEvE3scr @3976 DATA
    _ZZN21Fl_Radio_Light_Button15cheap_rtti_infoEvE3scr @3977 DATA
    _ZZN21Fl_Radio_Round_Button15cheap_rtti_infoEvE3scr @3978 DATA
    _ZZN6Fl_Box15cheap_rtti_infoEvE3scr @3979 DATA
    _ZZN7Fl_Dial15cheap_rtti_infoEvE3scr @3980 DATA
    _ZZN7Fl_Pack15cheap_rtti_infoEvE3scr @3981 DATA
    _ZZN7Fl_Tabs15cheap_rtti_infoEvE3scr @3982 DATA
    _ZZN7Fl_Tile15cheap_rtti_infoEvE3scr @3983 DATA
    _ZZN7Fl_Tree15cheap_rtti_infoEvE3scr @3984 DATA
    _ZZN8Fl_Chart15cheap_rtti_infoEvE3scr @3985 DATA
    _ZZN8Fl_Clock15cheap_rtti_infoEvE3scr @3986 DATA
    _ZZN8Fl_Group15cheap_rtti_infoEvE3scr @3987 DATA
    _ZZN8Fl_Image15cheap_rtti_infoEvE3scr @3988 DATA
    _ZZN8Fl_Input15cheap_rtti_infoEvE3scr @3989 DATA
    _ZZN8Fl_Menu_15cheap_rtti_infoEvE3scr @3990 DATA
    _ZZN8Fl_Table15cheap_rtti_infoEvE3scr @3991 DATA
    _ZZN9Fl_Bitmap15cheap_rtti_infoEvE3scr @3992 DATA
    _ZZN9Fl_Button15cheap_rtti_infoEvE3scr @3993 DATA
    _ZZN9Fl_Choice15cheap_rtti_infoEvE3scr @3994 DATA
    _ZZN9Fl_Input_15cheap_rtti_infoEvE3scr @3995 DATA
    _ZZN9Fl_Output15cheap_rtti_infoEvE3scr @3996 DATA
    _ZZN9Fl_Pixmap15cheap_rtti_infoEvE3scr @3997 DATA
    _ZZN9Fl_Roller15cheap_rtti_infoEvE3scr @3998 DATA
    _ZZN9Fl_Scroll15cheap_rtti_infoEvE3scr @3999 DATA
    _ZZN9Fl_Slider15cheap_rtti_infoEvE3scr @4000 DATA
    _ZZN9Fl_Widget15cheap_rtti_infoEvE3scr @4001 DATA
    _ZZN9Fl_Window15cheap_rtti_infoEvE3scr @4002 DATA
    _ZZN9Fl_Wizard15cheap_rtti_infoEvE3scr @4003 DATA
    _get_output_format @4004
    adler32 @4005
    adler32_combine @4006
    class_gc_event @4007
    crc32 @4008
    crc32_combine @4009
    cs @4010 DATA
    cs_ring @4011 DATA
    flDropTarget @4012 DATA
    flIDropTarget @4013 DATA
    fl_access @4014
    fl_aimm @4015 DATA
    fl_alphasort @4016
    fl_bg @4017 DATA
    fl_bg2 @4018 DATA
    fl_cancel @4019 DATA
    fl_capture @4020 DATA
    fl_casealphasort @4021
    fl_casenumericsort @4022
    fl_chmod @4023
    fl_clip_state_number @4024 DATA
    fl_close @4025 DATA
    fl_codepage @4026 DATA
    fl_color_ @4027 DATA
    fl_current_xmap @4028 DATA
    fl_default_cursor @4029 DATA
    fl_device @4030 DATA
    fl_disable_transient_for @4031 DATA
    fl_display @4032 DATA
    fl_display_device @4033 DATA
    fl_dnd_target_window @4034 DATA
    fl_draw_shortcut @4035 DATA
    fl_execvp @4036
    fl_fg @4037 DATA
    fl_font_ @4038 DATA
    fl_fonts @4039 DATA
    fl_fontsize @4040 DATA
    fl_fopen @4041
    fl_gc @4042 DATA
    fl_getcwd @4043
    fl_getenv @4044
    fl_i_own_selection @4045 DATA
    fl_is_ime @4046 DATA
    fl_local_grab @4047 DATA
    fl_locale_to_utf8 @4048
    fl_lock_function @4049 DATA
    fl_make_path @4050
    fl_make_path_for_file @4051
    fl_mask_bitmap @4052 DATA
    fl_matrix @4053 DATA
    fl_menu_array_owner @4054 DATA
    fl_message_font_ @4055 DATA
    fl_message_size_ @4056 DATA
    fl_mkdir @4057
    fl_msg @4058 DATA
    fl_no @4059 DATA
    fl_nonspacing @4060
    fl_numericsort @4061
    fl_ok @4062 DATA
    fl_oldfocus @4063 DATA
    fl_open @4064
    fl_palette @4065 DATA
    fl_rename @4066
    fl_rmdir @4067
    fl_scandir @4068
    fl_selection_buffer @4069 DATA
    fl_selection_buffer_length @4070 DATA
    fl_selection_length @4071 DATA
    fl_show_iconic @4072 DATA
    fl_size_ @4073 DATA
    fl_snprintf @4074
    fl_stat @4075
    fl_strlcat @4076
    fl_strlcpy @4077
    fl_system @4078
    fl_tolower @4079
    fl_toupper @4080
    fl_unlink @4081
    fl_unlock_function @4082 DATA
    fl_utf2mbcs @4083
    fl_utf8_to_locale @4084
    fl_utf8back @4085
    fl_utf8bytes @4086
    fl_utf8decode @4087
    fl_utf8encode @4088
    fl_utf8from_mb @4089
    fl_utf8froma @4090
    fl_utf8fromwc @4091
    fl_utf8fwd @4092
    fl_utf8len @4093
    fl_utf8locale @4094
    fl_utf8test @4095
    fl_utf8toUtf16 @4096
    fl_utf8to_mb @4097
    fl_utf8toa @4098
    fl_utf8towc @4099
    fl_utf_nb_char @4100
    fl_utf_strcasecmp @4101
    fl_utf_strncasecmp @4102
    fl_utf_tolower @4103
    fl_utf_toupper @4104
    fl_vsnprintf @4105
    fl_wake_msg @4106 DATA
    fl_wcwidth @4107
    fl_wcwidth_ @4108
    fl_window @4109 DATA
    fl_xfocus @4110 DATA
    fl_xmap @4111 DATA
    fl_xmousewin @4112 DATA
    fl_yes @4113 DATA
    get_crc_table @4114
    getc @4115
    inflate @4116
    inflateCopy @4117
    inflateEnd @4118
    inflateGetHeader @4119
    inflateInit2_ @4120
    inflateInit_ @4121
    inflatePrime @4122
    inflateReset @4123
    inflateSetDictionary @4124
    inflateSync @4125
    inflateSyncPoint @4126
    inflate_copyright @4127 DATA
    inflate_fast @4128
    inflate_table @4129
    isspace @4130
    jcopy_block_row @4131
    jcopy_sample_rows @4132
    jdiv_round_up @4133
    jinit_1pass_quantizer @4134
    jinit_2pass_quantizer @4135
    jinit_color_deconverter @4136
    jinit_d_coef_controller @4137
    jinit_d_main_controller @4138
    jinit_d_post_controller @4139
    jinit_huff_decoder @4140
    jinit_input_controller @4141
    jinit_inverse_dct @4142
    jinit_marker_reader @4143
    jinit_master_decompress @4144
    jinit_memory_mgr @4145
    jinit_merged_upsampler @4146
    jinit_phuff_decoder @4147
    jinit_upsampler @4148
    jpeg_CreateDecompress @4149
    jpeg_abort @4150
    jpeg_abort_decompress @4151
    jpeg_alloc_huff_table @4152
    jpeg_alloc_quant_table @4153
    jpeg_calc_output_dimensions @4154
    jpeg_consume_input @4155
    jpeg_destroy @4156
    jpeg_destroy_decompress @4157
    jpeg_fill_bit_buffer @4158
    jpeg_finish_decompress @4159
    jpeg_finish_output @4160
    jpeg_free_large @4161
    jpeg_free_small @4162
    jpeg_get_large @4163
    jpeg_get_small @4164
    jpeg_has_multiple_scans @4165
    jpeg_huff_decode @4166
    jpeg_idct_1x1 @4167
    jpeg_idct_2x2 @4168
    jpeg_idct_4x4 @4169
    jpeg_idct_float @4170
    jpeg_idct_ifast @4171
    jpeg_idct_islow @4172
    jpeg_input_complete @4173
    jpeg_make_d_derived_tbl @4174
    jpeg_mem_available @4175
    jpeg_mem_init @4176
    jpeg_mem_term @4177
    jpeg_natural_order @4178 DATA
    jpeg_new_colormap @4179
    jpeg_open_backing_store @4180
    jpeg_read_header @4181
    jpeg_read_raw_data @4182
    jpeg_read_scanlines @4183
    jpeg_resync_to_restart @4184
    jpeg_save_markers @4185
    jpeg_set_marker_processor @4186
    jpeg_start_decompress @4187
    jpeg_start_output @4188
    jpeg_std_error @4189
    jpeg_std_message_table @4190 DATA
    jpeg_stdio_src @4191
    jround_up @4192
    jzero_far @4193
    luaopen_fltk @4194
    png_64bit_product @4195
    png_IDAT @4196 DATA
    png_IEND @4197 DATA
    png_IHDR @4198 DATA
    png_PLTE @4199 DATA
    png_access_version_number @4200
    png_bKGD @4201 DATA
    png_build_gamma_table @4202
    png_build_grayscale_palette @4203
    png_cHRM @4204 DATA
    png_calculate_crc @4205
    png_check_cHRM_fixed @4206
    png_check_chunk_name @4207
    png_check_sig @4208
    png_chunk_error @4209
    png_chunk_warning @4210
    png_combine_row @4211
    png_convert_to_rfc1123 @4212
    png_crc_error @4213
    png_crc_finish @4214
    png_crc_read @4215
    png_create_info_struct @4216
    png_create_read_struct @4217
    png_create_read_struct_2 @4218
    png_create_struct @4219
    png_create_struct_2 @4220
    png_data_freer @4221
    png_decompress_chunk @4222
    png_default_read_data @4223
    png_destroy_info_struct @4224
    png_destroy_read_struct @4225
    png_destroy_struct @4226
    png_destroy_struct_2 @4227
    png_do_background @4228
    png_do_bgr @4229
    png_do_chop @4230
    png_do_dither @4231
    png_do_expand @4232
    png_do_expand_palette @4233
    png_do_gamma @4234
    png_do_gray_to_rgb @4235
    png_do_invert @4236
    png_do_packswap @4237
    png_do_read_filler @4238
    png_do_read_interlace @4239
    png_do_read_intrapixel @4240
    png_do_read_invert_alpha @4241
    png_do_read_swap_alpha @4242
    png_do_read_transformations @4243
    png_do_rgb_to_gray @4244
    png_do_strip_filler @4245
    png_do_swap @4246
    png_do_unpack @4247
    png_do_unshift @4248
    png_error @4249
    png_free @4250
    png_free_data @4251
    png_free_default @4252
    png_gAMA @4253 DATA
    png_get_IHDR @4254
    png_get_PLTE @4255
    png_get_asm_flagmask @4256
    png_get_asm_flags @4257
    png_get_bKGD @4258
    png_get_bit_depth @4259
    png_get_cHRM @4260
    png_get_cHRM_fixed @4261
    png_get_channels @4262
    png_get_color_type @4263
    png_get_compression_buffer_size @4264
    png_get_compression_type @4265
    png_get_copyright @4266
    png_get_error_ptr @4267
    png_get_filter_type @4268
    png_get_gAMA @4269
    png_get_gAMA_fixed @4270
    png_get_hIST @4271
    png_get_header_ver @4272
    png_get_header_version @4273
    png_get_iCCP @4274
    png_get_image_height @4275
    png_get_image_width @4276
    png_get_int_32 @4277
    png_get_interlace_type @4278
    png_get_io_ptr @4279
    png_get_libpng_ver @4280
    png_get_mem_ptr @4281
    png_get_mmx_bitdepth_threshold @4282
    png_get_mmx_flagmask @4283
    png_get_mmx_rowbytes_threshold @4284
    png_get_oFFs @4285
    png_get_pCAL @4286
    png_get_pHYs @4287
    png_get_pixel_aspect_ratio @4288
    png_get_pixels_per_meter @4289
    png_get_rgb_to_gray_status @4290
    png_get_rowbytes @4291
    png_get_rows @4292
    png_get_sBIT @4293
    png_get_sCAL @4294
    png_get_sPLT @4295
    png_get_sRGB @4296
    png_get_signature @4297
    png_get_tIME @4298
    png_get_tRNS @4299
    png_get_text @4300
    png_get_uint_16 @4301
    png_get_uint_31 @4302
    png_get_uint_32 @4303
    png_get_unknown_chunks @4304
    png_get_user_chunk_ptr @4305
    png_get_user_height_max @4306
    png_get_user_transform_ptr @4307
    png_get_user_width_max @4308
    png_get_valid @4309
    png_get_x_offset_microns @4310
    png_get_x_offset_pixels @4311
    png_get_x_pixels_per_meter @4312
    png_get_y_offset_microns @4313
    png_get_y_offset_pixels @4314
    png_get_y_pixels_per_meter @4315
    png_hIST @4316 DATA
    png_handle_IEND @4317
    png_handle_IHDR @4318
    png_handle_PLTE @4319
    png_handle_as_unknown @4320
    png_handle_bKGD @4321
    png_handle_cHRM @4322
    png_handle_gAMA @4323
    png_handle_hIST @4324
    png_handle_iCCP @4325
    png_handle_oFFs @4326
    png_handle_pCAL @4327
    png_handle_pHYs @4328
    png_handle_sBIT @4329
    png_handle_sCAL @4330
    png_handle_sPLT @4331
    png_handle_sRGB @4332
    png_handle_tEXt @4333
    png_handle_tIME @4334
    png_handle_tRNS @4335
    png_handle_unknown @4336
    png_handle_zTXt @4337
    png_iCCP @4338 DATA
    png_iTXt @4339 DATA
    png_info_destroy @4340
    png_info_init @4341
    png_info_init_3 @4342
    png_init_io @4343
    png_init_read_transformations @4344
    png_libpng_ver @4345 DATA
    png_malloc @4346
    png_malloc_default @4347
    png_malloc_warn @4348
    png_memcpy_check @4349
    png_memset_check @4350
    png_mmx_support @4351
    png_oFFs @4352 DATA
    png_pCAL @4353 DATA
    png_pHYs @4354 DATA
    png_pass_dsp_mask @4355 DATA
    png_pass_inc @4356 DATA
    png_pass_mask @4357 DATA
    png_pass_start @4358 DATA
    png_pass_yinc @4359 DATA
    png_pass_ystart @4360 DATA
    png_permit_empty_plte @4361
    png_permit_mng_features @4362
    png_read_chunk_header @4363
    png_read_data @4364
    png_read_destroy @4365
    png_read_end @4366
    png_read_filter_row @4367
    png_read_finish_row @4368
    png_read_image @4369
    png_read_info @4370
    png_read_init @4371
    png_read_init_2 @4372
    png_read_init_3 @4373
    png_read_png @4374
    png_read_row @4375
    png_read_rows @4376
    png_read_start_row @4377
    png_read_transform_info @4378
    png_read_update_info @4379
    png_reset_crc @4380
    png_reset_zstream @4381
    png_sBIT @4382 DATA
    png_sCAL @4383 DATA
    png_sPLT @4384 DATA
    png_sRGB @4385 DATA
    png_set_IHDR @4386
    png_set_PLTE @4387
    png_set_add_alpha @4388
    png_set_asm_flags @4389
    png_set_bKGD @4390
    png_set_background @4391
    png_set_bgr @4392
    png_set_cHRM @4393
    png_set_cHRM_fixed @4394
    png_set_compression_buffer_size @4395
    png_set_crc_action @4396
    png_set_dither @4397
    png_set_error_fn @4398
    png_set_expand @4399
    png_set_expand_gray_1_2_4_to_8 @4400
    png_set_filler @4401
    png_set_gAMA @4402
    png_set_gAMA_fixed @4403
    png_set_gamma @4404
    png_set_gray_1_2_4_to_8 @4405
    png_set_gray_to_rgb @4406
    png_set_hIST @4407
    png_set_iCCP @4408
    png_set_interlace_handling @4409
    png_set_invalid @4410
    png_set_invert_alpha @4411
    png_set_invert_mono @4412
    png_set_keep_unknown_chunks @4413
    png_set_mem_fn @4414
    png_set_mmx_thresholds @4415
    png_set_oFFs @4416
    png_set_pCAL @4417
    png_set_pHYs @4418
    png_set_packing @4419
    png_set_packswap @4420
    png_set_palette_to_rgb @4421
    png_set_read_fn @4422
    png_set_read_status_fn @4423
    png_set_read_user_chunk_fn @4424
    png_set_read_user_transform_fn @4425
    png_set_rgb_to_gray @4426
    png_set_rgb_to_gray_fixed @4427
    png_set_rows @4428
    png_set_sBIT @4429
    png_set_sCAL @4430
    png_set_sPLT @4431
    png_set_sRGB @4432
    png_set_sRGB_gAMA_and_cHRM @4433
    png_set_shift @4434
    png_set_sig_bytes @4435
    png_set_strip_16 @4436
    png_set_strip_alpha @4437
    png_set_strip_error_numbers @4438
    png_set_swap @4439
    png_set_swap_alpha @4440
    png_set_tIME @4441
    png_set_tRNS @4442
    png_set_tRNS_to_alpha @4443
    png_set_text @4444
    png_set_text_2 @4445
    png_set_unknown_chunk_location @4446
    png_set_unknown_chunks @4447
    png_set_user_limits @4448
    png_set_user_transform_info @4449
    png_sig @4450 DATA
    png_sig_cmp @4451
    png_start_read_image @4452
    png_tEXt @4453 DATA
    png_tIME @4454 DATA
    png_tRNS @4455 DATA
    png_warning @4456
    png_zTXt @4457 DATA
    png_zalloc @4458
    png_zfree @4459
    push_table_instance @4460
    tolua_array @4461
    tolua_beginmodule @4462
    tolua_cclass @4463
    tolua_classevents @4464
    tolua_constant @4465
    tolua_copy @4466
    tolua_default_collect @4467
    tolua_dobuffer @4468
    tolua_endmodule @4469
    tolua_error @4470
    tolua_fast_isa @4471
    tolua_fltk_open @4472
    tolua_function @4473
    tolua_getfieldboolean @4474
    tolua_isboolean @4475
    tolua_isbooleanarray @4476
    tolua_isfunction @4477
    tolua_ismodulemetatable @4478
    tolua_isnoobj @4479
    tolua_isnumber @4480
    tolua_isnumberarray @4481
    tolua_isstring @4482
    tolua_isstringarray @4483
    tolua_istable @4484
    tolua_istablearray @4485
    tolua_isuserdata @4486
    tolua_isuserdataarray @4487
    tolua_isusertable @4488
    tolua_isusertype @4489
    tolua_isusertypearray @4490
    tolua_isvalue @4491
    tolua_isvaluearray @4492
    tolua_isvaluenil @4493
    tolua_module @4494
    tolua_moduleevents @4495
    tolua_open @4496
    tolua_pushboolean @4497
    tolua_pushfieldboolean @4498
    tolua_pushfieldnumber @4499
    tolua_pushfieldstring @4500
    tolua_pushfielduserdata @4501
    tolua_pushfieldusertype @4502
    tolua_pushfieldusertype_and_takeownership @4503
    tolua_pushfieldvalue @4504
    tolua_pushnumber @4505
    tolua_pushstring @4506
    tolua_pushuserdata @4507
    tolua_pushusertype @4508
    tolua_pushusertype_and_takeownership @4509
    tolua_pushvalue @4510
    tolua_register_gc @4511
    tolua_toboolean @4512
    tolua_tofieldnumber @4513
    tolua_tofieldstring @4514
    tolua_tofielduserdata @4515
    tolua_tofieldusertype @4516
    tolua_tofieldvalue @4517
    tolua_tonumber @4518
    tolua_tostring @4519
    tolua_touserdata @4520
    tolua_tousertype @4521
    tolua_tovalue @4522
    tolua_typename @4523
    tolua_usertype @4524
    tolua_variable @4525
    win_pixmap_bg_color @4526 DATA
    zError @4527
    z_errmsg @4528 DATA
    zcalloc @4529
    zcfree @4530
    zlibCompileFlags @4531
    zlibVersion @4532

IMPORTS

    LIBPQ.dll.PQbackendPID
    LIBPQ.dll.PQbinaryTuples
    LIBPQ.dll.PQcancel
    LIBPQ.dll.PQclear
    LIBPQ.dll.PQclientEncoding
    LIBPQ.dll.PQcmdStatus
    LIBPQ.dll.PQcmdTuples
    LIBPQ.dll.PQconndefaults
    LIBPQ.dll.PQconnectPoll
    LIBPQ.dll.PQconnectStart
    LIBPQ.dll.PQconnectdb
    LIBPQ.dll.PQconnectionNeedsPassword
    LIBPQ.dll.PQconnectionUsedPassword
    LIBPQ.dll.PQconninfoFree
    LIBPQ.dll.PQconninfoParse
    LIBPQ.dll.PQconsumeInput
    LIBPQ.dll.PQcopyResult
    LIBPQ.dll.PQdb
    LIBPQ.dll.PQdescribePortal
    LIBPQ.dll.PQdescribePrepared
    LIBPQ.dll.PQdisplayTuples
    LIBPQ.dll.PQdsplen
    LIBPQ.dll.PQencryptPassword
    LIBPQ.dll.PQendcopy
    LIBPQ.dll.PQenv2encoding
    LIBPQ.dll.PQerrorMessage
    LIBPQ.dll.PQescapeBytea
    LIBPQ.dll.PQescapeByteaConn
    LIBPQ.dll.PQescapeString
    LIBPQ.dll.PQescapeStringConn
    LIBPQ.dll.PQexec
    LIBPQ.dll.PQexecParams
    LIBPQ.dll.PQexecPrepared
    LIBPQ.dll.PQfformat
    LIBPQ.dll.PQfinish
    LIBPQ.dll.PQfireResultCreateEvents
    LIBPQ.dll.PQflush
    LIBPQ.dll.PQfmod
    LIBPQ.dll.PQfn
    LIBPQ.dll.PQfname
    LIBPQ.dll.PQfnumber
    LIBPQ.dll.PQfreeCancel
    LIBPQ.dll.PQfreeNotify
    LIBPQ.dll.PQfreemem
    LIBPQ.dll.PQfsize
    LIBPQ.dll.PQftable
    LIBPQ.dll.PQftablecol
    LIBPQ.dll.PQftype
    LIBPQ.dll.PQgetCancel
    LIBPQ.dll.PQgetCopyData
    LIBPQ.dll.PQgetResult
    LIBPQ.dll.PQgetisnull
    LIBPQ.dll.PQgetlength
    LIBPQ.dll.PQgetline
    LIBPQ.dll.PQgetlineAsync
    LIBPQ.dll.PQgetssl
    LIBPQ.dll.PQgetvalue
    LIBPQ.dll.PQhost
    LIBPQ.dll.PQinitOpenSSL
    LIBPQ.dll.PQinitSSL
    LIBPQ.dll.PQinstanceData
    LIBPQ.dll.PQisBusy
    LIBPQ.dll.PQisnonblocking
    LIBPQ.dll.PQisthreadsafe
    LIBPQ.dll.PQmakeEmptyPGresult
    LIBPQ.dll.PQmblen
    LIBPQ.dll.PQnfields
    LIBPQ.dll.PQnotifies
    LIBPQ.dll.PQnparams
    LIBPQ.dll.PQntuples
    LIBPQ.dll.PQoidStatus
    LIBPQ.dll.PQoidValue
    LIBPQ.dll.PQoptions
    LIBPQ.dll.PQparameterStatus
    LIBPQ.dll.PQparamtype
    LIBPQ.dll.PQpass
    LIBPQ.dll.PQport
    LIBPQ.dll.PQprepare
    LIBPQ.dll.PQprint
    LIBPQ.dll.PQprintTuples
    LIBPQ.dll.PQprotocolVersion
    LIBPQ.dll.PQputCopyData
    LIBPQ.dll.PQputCopyEnd
    LIBPQ.dll.PQputline
    LIBPQ.dll.PQputnbytes
    LIBPQ.dll.PQregisterEventProc
    LIBPQ.dll.PQregisterThreadLock
    LIBPQ.dll.PQrequestCancel
    LIBPQ.dll.PQresStatus
    LIBPQ.dll.PQreset
    LIBPQ.dll.PQresetPoll
    LIBPQ.dll.PQresetStart
    LIBPQ.dll.PQresultAlloc
    LIBPQ.dll.PQresultErrorField
    LIBPQ.dll.PQresultErrorMessage
    LIBPQ.dll.PQresultInstanceData
    LIBPQ.dll.PQresultSetInstanceData
    LIBPQ.dll.PQresultStatus
    LIBPQ.dll.PQsendDescribePortal
    LIBPQ.dll.PQsendDescribePrepared
    LIBPQ.dll.PQsendPrepare
    LIBPQ.dll.PQsendQuery
    LIBPQ.dll.PQsendQueryParams
    LIBPQ.dll.PQsendQueryPrepared
    LIBPQ.dll.PQserverVersion
    LIBPQ.dll.PQsetClientEncoding
    LIBPQ.dll.PQsetErrorVerbosity
    LIBPQ.dll.PQsetInstanceData
    LIBPQ.dll.PQsetNoticeProcessor
    LIBPQ.dll.PQsetNoticeReceiver
    LIBPQ.dll.PQsetResultAttrs
    LIBPQ.dll.PQsetdbLogin
    LIBPQ.dll.PQsetnonblocking
    LIBPQ.dll.PQsetvalue
    LIBPQ.dll.PQsocket
    LIBPQ.dll.PQstatus
    LIBPQ.dll.PQtrace
    LIBPQ.dll.PQtransactionStatus
    LIBPQ.dll.PQtty
    LIBPQ.dll.PQunescapeBytea
    LIBPQ.dll.PQuntrace
    LIBPQ.dll.PQuser
    LIBPQ.dll.appendBinaryPQExpBuffer
    LIBPQ.dll.appendPQExpBuffer
    LIBPQ.dll.appendPQExpBufferChar
    LIBPQ.dll.appendPQExpBufferStr
    LIBPQ.dll.createPQExpBuffer
    LIBPQ.dll.destroyPQExpBuffer
    LIBPQ.dll.enlargePQExpBuffer
    LIBPQ.dll.initPQExpBuffer
    LIBPQ.dll.lo_close
    LIBPQ.dll.lo_creat
    LIBPQ.dll.lo_create
    LIBPQ.dll.lo_export
    LIBPQ.dll.lo_import
    LIBPQ.dll.lo_import_with_oid
    LIBPQ.dll.lo_lseek
    LIBPQ.dll.lo_open
    LIBPQ.dll.lo_read
    LIBPQ.dll.lo_tell
    LIBPQ.dll.lo_truncate
    LIBPQ.dll.lo_unlink
    LIBPQ.dll.lo_write
    LIBPQ.dll.pg_char_to_encoding
    LIBPQ.dll.pg_encoding_to_char
    LIBPQ.dll.pg_utf_mblen
    LIBPQ.dll.pg_valid_server_encoding
    LIBPQ.dll.pg_valid_server_encoding_id
    LIBPQ.dll.pgresStatus
    LIBPQ.dll.pqsignal
    LIBPQ.dll.printfPQExpBuffer
    LIBPQ.dll.resetPQExpBuffer
    LIBPQ.dll.termPQExpBuffer
